Archive member included because of file (symbol)

libbb/lib.a(appletlib.o)      /home/paldier/k3_384/release/src-rt-6.x.4708/toolchains/hndtools-arm-linux-2.6.36-uclibc-4.5.3/bin/../arm-brcm-linux-uclibcgnueabi/sysroot/usr/lib/crt1.o (main)
libbb/lib.a(compare_string_array.o)
                              libbb/lib.a(appletlib.o) (is_prefixed_with)
libbb/lib.a(default_error_retval.o)
                              libbb/lib.a(appletlib.o) (xfunc_error_retval)
libbb/lib.a(get_last_path_component.o)
                              libbb/lib.a(appletlib.o) (bb_basename)
libbb/lib.a(last_char_is.o)   libbb/lib.a(get_last_path_component.o) (last_char_is)
libbb/lib.a(messages.o)       libbb/lib.a(appletlib.o) (bb_banner)
libbb/lib.a(ptr_to_globals.o)
                              libbb/lib.a(appletlib.o) (bb_errno)
libbb/lib.a(verror_msg.o)     libbb/lib.a(appletlib.o) (bb_error_msg_and_die)
libbb/lib.a(xfunc_die.o)      libbb/lib.a(appletlib.o) (xfunc_die)
libbb/lib.a(xfuncs.o)         libbb/lib.a(appletlib.o) (full_write2_str)
libbb/lib.a(xfuncs_printf.o)  libbb/lib.a(verror_msg.o) (fflush_all)
libbb/lib.a(copyfd.o)         libbb/lib.a(xfuncs_printf.o) (bb_copyfd_eof)
libbb/lib.a(full_write.o)     libbb/lib.a(verror_msg.o) (full_write)
libbb/lib.a(perror_msg.o)     libbb/lib.a(xfuncs_printf.o) (bb_perror_msg)
libbb/lib.a(read.o)           libbb/lib.a(copyfd.o) (safe_read)
libbb/lib.a(safe_write.o)     libbb/lib.a(full_write.o) (safe_write)
libbb/lib.a(signals.o)        libbb/lib.a(xfuncs_printf.o) (kill_myself_with_sig)
libbb/lib.a(time.o)           libbb/lib.a(xfuncs_printf.o) (monotonic_us)
libbb/lib.a(bb_strtonum.o)    libbb/lib.a(time.o) (bb_strtol)
loginutils/lib.a(chpasswd.o)  libbb/lib.a(appletlib.o) (chpasswd_main)
loginutils/lib.a(login.o)     libbb/lib.a(appletlib.o) (login_main)
miscutils/lib.a(crond.o)      libbb/lib.a(appletlib.o) (crond_main)
miscutils/lib.a(devmem.o)     libbb/lib.a(appletlib.o) (devmem_main)
miscutils/lib.a(flash_eraseall.o)
                              libbb/lib.a(appletlib.o) (flash_eraseall_main)
miscutils/lib.a(ionice.o)     libbb/lib.a(appletlib.o) (ionice_main)
miscutils/lib.a(less.o)       libbb/lib.a(appletlib.o) (less_main)
miscutils/lib.a(strings.o)    libbb/lib.a(appletlib.o) (strings_main)
modutils/lib.a(insmod.o)      libbb/lib.a(appletlib.o) (insmod_main)
modutils/lib.a(lsmod.o)       libbb/lib.a(appletlib.o) (lsmod_main)
modutils/lib.a(modprobe.o)    libbb/lib.a(appletlib.o) (modprobe_main)
modutils/lib.a(modutils.o)    modutils/lib.a(modprobe.o) (replace)
modutils/lib.a(rmmod.o)       libbb/lib.a(appletlib.o) (rmmod_main)
networking/lib.a(arp.o)       libbb/lib.a(appletlib.o) (arp_main)
networking/lib.a(ether-wake.o)
                              libbb/lib.a(appletlib.o) (ether_wake_main)
networking/lib.a(ifconfig.o)  libbb/lib.a(appletlib.o) (ifconfig_main)
networking/lib.a(interface.o)
                              networking/lib.a(arp.o) (get_aftype)
networking/lib.a(netstat.o)   libbb/lib.a(appletlib.o) (netstat_main)
networking/lib.a(nslookup.o)  libbb/lib.a(appletlib.o) (nslookup_main)
networking/lib.a(ping.o)      libbb/lib.a(appletlib.o) (ping_main)
networking/lib.a(route.o)     networking/lib.a(netstat.o) (bb_displayroutes)
networking/lib.a(telnetd.o)   libbb/lib.a(appletlib.o) (telnetd_main)
networking/lib.a(traceroute.o)
                              libbb/lib.a(appletlib.o) (traceroute_main)
networking/lib.a(vconfig.o)   libbb/lib.a(appletlib.o) (vconfig_main)
networking/lib.a(zcip.o)      libbb/lib.a(appletlib.o) (zcip_main)
networking/udhcp/lib.a(dhcpc.o)
                              libbb/lib.a(appletlib.o) (udhcpc_main)
networking/udhcp/lib.a(packet.o)
                              networking/udhcp/lib.a(dhcpc.o) (udhcp_init_header)
networking/udhcp/lib.a(signalpipe.o)
                              networking/udhcp/lib.a(dhcpc.o) (udhcp_sp_setup)
networking/udhcp/lib.a(socket.o)
                              networking/udhcp/lib.a(dhcpc.o) (udhcp_read_interface)
networking/udhcp/lib.a(arpping.o)
                              networking/udhcp/lib.a(dhcpc.o) (arpping)
networking/udhcp/lib.a(common.o)
                              networking/udhcp/lib.a(dhcpc.o) (udhcp_option_idx)
procps/lib.a(free.o)          libbb/lib.a(appletlib.o) (free_main)
procps/lib.a(kill.o)          libbb/lib.a(appletlib.o) (kill_main)
procps/lib.a(pidof.o)         libbb/lib.a(appletlib.o) (pidof_main)
procps/lib.a(ps.o)            libbb/lib.a(appletlib.o) (ps_main)
procps/lib.a(renice.o)        libbb/lib.a(appletlib.o) (renice_main)
procps/lib.a(top.o)           libbb/lib.a(appletlib.o) (top_main)
procps/lib.a(uptime.o)        libbb/lib.a(appletlib.o) (uptime_main)
procps/lib.a(watch.o)         libbb/lib.a(appletlib.o) (watch_main)
shell/lib.a(ash.o)            libbb/lib.a(appletlib.o) (ash_main)
shell/lib.a(ash_ptr_hack.o)   shell/lib.a(ash.o) (ash_ptr_to_globals_misc)
shell/lib.a(math.o)           shell/lib.a(ash.o) (arith)
shell/lib.a(shell_common.o)   shell/lib.a(ash.o) (shell_builtin_read)
sysklogd/lib.a(klogd.o)       libbb/lib.a(appletlib.o) (klogd_main)
sysklogd/lib.a(syslogd_and_logger.o)
                              libbb/lib.a(appletlib.o) (syslogd_main)
util-linux/lib.a(blkid.o)     libbb/lib.a(appletlib.o) (blkid_main)
util-linux/lib.a(dmesg.o)     libbb/lib.a(appletlib.o) (dmesg_main)
util-linux/lib.a(fdisk.o)     libbb/lib.a(appletlib.o) (fdisk_main)
util-linux/lib.a(flock.o)     libbb/lib.a(appletlib.o) (flock_main)
util-linux/lib.a(fsck_minix.o)
                              libbb/lib.a(appletlib.o) (fsck_minix_main)
util-linux/lib.a(lsusb.o)     libbb/lib.a(appletlib.o) (lsusb_main)
util-linux/lib.a(mdev.o)      libbb/lib.a(appletlib.o) (mdev_main)
util-linux/lib.a(mkswap.o)    libbb/lib.a(appletlib.o) (mkswap_main)
util-linux/lib.a(more.o)      libbb/lib.a(appletlib.o) (more_main)
util-linux/lib.a(mount.o)     libbb/lib.a(appletlib.o) (mount_main)
util-linux/lib.a(swaponoff.o)
                              libbb/lib.a(appletlib.o) (swap_on_off_main)
util-linux/lib.a(umount.o)    libbb/lib.a(appletlib.o) (umount_main)
util-linux/volume_id/lib.a(get_devname.o)
                              util-linux/lib.a(blkid.o) (display_uuid_cache)
util-linux/volume_id/lib.a(volume_id.o)
                              util-linux/volume_id/lib.a(get_devname.o) (volume_id_probe_all)
util-linux/volume_id/lib.a(ext.o)
                              util-linux/volume_id/lib.a(volume_id.o) (volume_id_probe_ext)
util-linux/volume_id/lib.a(fat.o)
                              util-linux/volume_id/lib.a(volume_id.o) (volume_id_probe_vfat)
util-linux/volume_id/lib.a(hfs.o)
                              util-linux/volume_id/lib.a(volume_id.o) (volume_id_probe_hfs_hfsplus)
util-linux/volume_id/lib.a(linux_swap.o)
                              util-linux/volume_id/lib.a(volume_id.o) (volume_id_probe_linux_swap)
util-linux/volume_id/lib.a(ntfs.o)
                              util-linux/volume_id/lib.a(volume_id.o) (volume_id_probe_ntfs)
util-linux/volume_id/lib.a(util.o)
                              util-linux/volume_id/lib.a(ext.o) (volume_id_set_label_string)
archival/lib.a(bbunzip.o)     libbb/lib.a(appletlib.o) (gunzip_main)
archival/lib.a(gzip.o)        libbb/lib.a(appletlib.o) (gzip_main)
archival/lib.a(tar.o)         libbb/lib.a(appletlib.o) (tar_main)
archival/lib.a(unzip.o)       libbb/lib.a(appletlib.o) (unzip_main)
archival/libarchive/lib.a(data_extract_all.o)
                              archival/lib.a(tar.o) (data_extract_all)
archival/libarchive/lib.a(data_extract_to_stdout.o)
                              archival/lib.a(tar.o) (data_extract_to_stdout)
archival/libarchive/lib.a(data_skip.o)
                              archival/libarchive/lib.a(data_extract_all.o) (data_skip)
archival/libarchive/lib.a(decompress_bunzip2.o)
                              archival/lib.a(tar.o) (unpack_bz2_stream)
archival/libarchive/lib.a(decompress_gunzip.o)
                              archival/lib.a(unzip.o) (inflate_unzip)
archival/libarchive/lib.a(filter_accept_reject_list.o)
                              archival/lib.a(tar.o) (filter_accept_reject_list)
archival/libarchive/lib.a(find_list_entry.o)
                              archival/lib.a(tar.o) (find_list_entry)
archival/libarchive/lib.a(get_header_tar.o)
                              archival/lib.a(tar.o) (get_header_tar)
archival/libarchive/lib.a(header_list.o)
                              archival/lib.a(tar.o) (header_list)
archival/libarchive/lib.a(header_verbose_list.o)
                              archival/lib.a(tar.o) (header_verbose_list)
archival/libarchive/lib.a(init_handle.o)
                              archival/lib.a(tar.o) (init_handle)
archival/libarchive/lib.a(open_transformer.o)
                              archival/lib.a(bbunzip.o) (init_transformer_state)
archival/libarchive/lib.a(seek_by_jump.o)
                              archival/libarchive/lib.a(init_handle.o) (seek_by_jump)
archival/libarchive/lib.a(seek_by_read.o)
                              archival/lib.a(tar.o) (seek_by_read)
archival/libarchive/lib.a(unsafe_prefix.o)
                              archival/lib.a(tar.o) (strip_unsafe_prefix)
archival/libarchive/lib.a(data_align.o)
                              archival/libarchive/lib.a(get_header_tar.o) (data_align)
archival/libarchive/lib.a(filter_accept_all.o)
                              archival/libarchive/lib.a(init_handle.o) (filter_accept_all)
archival/libarchive/lib.a(header_skip.o)
                              archival/libarchive/lib.a(init_handle.o) (header_skip)
console-tools/lib.a(clear.o)  libbb/lib.a(appletlib.o) (clear_main)
console-tools/lib.a(setconsole.o)
                              libbb/lib.a(appletlib.o) (setconsole_main)
coreutils/lib.a(basename.o)   libbb/lib.a(appletlib.o) (basename_main)
coreutils/lib.a(cat.o)        miscutils/lib.a(less.o) (bb_cat)
coreutils/lib.a(chmod.o)      libbb/lib.a(appletlib.o) (chmod_main)
coreutils/lib.a(chown.o)      libbb/lib.a(appletlib.o) (chown_main)
coreutils/lib.a(cp.o)         libbb/lib.a(appletlib.o) (cp_main)
coreutils/lib.a(cut.o)        libbb/lib.a(appletlib.o) (cut_main)
coreutils/lib.a(date.o)       libbb/lib.a(appletlib.o) (date_main)
coreutils/lib.a(dd.o)         libbb/lib.a(appletlib.o) (dd_main)
coreutils/lib.a(df.o)         libbb/lib.a(appletlib.o) (df_main)
coreutils/lib.a(dirname.o)    libbb/lib.a(appletlib.o) (dirname_main)
coreutils/lib.a(du.o)         libbb/lib.a(appletlib.o) (du_main)
coreutils/lib.a(echo.o)       libbb/lib.a(appletlib.o) (echo_main)
coreutils/lib.a(env.o)        libbb/lib.a(appletlib.o) (env_main)
coreutils/lib.a(expr.o)       libbb/lib.a(appletlib.o) (expr_main)
coreutils/lib.a(fsync.o)      libbb/lib.a(appletlib.o) (fsync_main)
coreutils/lib.a(head.o)       libbb/lib.a(appletlib.o) (head_main)
coreutils/lib.a(ln.o)         libbb/lib.a(appletlib.o) (ln_main)
coreutils/lib.a(ls.o)         libbb/lib.a(appletlib.o) (ls_main)
coreutils/lib.a(md5_sha1_sum.o)
                              libbb/lib.a(appletlib.o) (md5_sha1_sum_main)
coreutils/lib.a(mkdir.o)      libbb/lib.a(appletlib.o) (mkdir_main)
coreutils/lib.a(mknod.o)      libbb/lib.a(appletlib.o) (mknod_main)
coreutils/lib.a(mv.o)         libbb/lib.a(appletlib.o) (mv_main)
coreutils/lib.a(nice.o)       libbb/lib.a(appletlib.o) (nice_main)
coreutils/lib.a(nohup.o)      libbb/lib.a(appletlib.o) (nohup_main)
coreutils/lib.a(printf.o)     libbb/lib.a(appletlib.o) (printf_main)
coreutils/lib.a(pwd.o)        libbb/lib.a(appletlib.o) (pwd_main)
coreutils/lib.a(readlink.o)   libbb/lib.a(appletlib.o) (readlink_main)
coreutils/lib.a(rm.o)         libbb/lib.a(appletlib.o) (rm_main)
coreutils/lib.a(rmdir.o)      libbb/lib.a(appletlib.o) (rmdir_main)
coreutils/lib.a(sleep.o)      libbb/lib.a(appletlib.o) (sleep_main)
coreutils/lib.a(sort.o)       libbb/lib.a(appletlib.o) (sort_main)
coreutils/lib.a(sync.o)       libbb/lib.a(appletlib.o) (sync_main)
coreutils/lib.a(tail.o)       libbb/lib.a(appletlib.o) (tail_main)
coreutils/lib.a(test.o)       libbb/lib.a(appletlib.o) (test_main)
coreutils/lib.a(test_ptr_hack.o)
                              coreutils/lib.a(test.o) (test_ptr_to_statics)
coreutils/lib.a(touch.o)      libbb/lib.a(appletlib.o) (touch_main)
coreutils/lib.a(tr.o)         libbb/lib.a(appletlib.o) (tr_main)
coreutils/lib.a(true.o)       libbb/lib.a(appletlib.o) (true_main)
coreutils/lib.a(uname.o)      libbb/lib.a(appletlib.o) (uname_main)
coreutils/lib.a(uniq.o)       libbb/lib.a(appletlib.o) (uniq_main)
coreutils/lib.a(usleep.o)     libbb/lib.a(appletlib.o) (usleep_main)
coreutils/lib.a(uudecode.o)   libbb/lib.a(appletlib.o) (base64_main)
coreutils/lib.a(wc.o)         libbb/lib.a(appletlib.o) (wc_main)
coreutils/libcoreutils/lib.a(cp_mv_stat.o)
                              coreutils/lib.a(cp.o) (cp_mv_stat2)
coreutils/libcoreutils/lib.a(getopt_mk_fifo_nod.o)
                              coreutils/lib.a(mknod.o) (getopt_mk_fifo_nod)
debianutils/lib.a(start_stop_daemon.o)
                              libbb/lib.a(appletlib.o) (start_stop_daemon_main)
debianutils/lib.a(which.o)    libbb/lib.a(appletlib.o) (which_main)
e2fsprogs/lib.a(fsck.o)       libbb/lib.a(appletlib.o) (fsck_main)
editors/lib.a(awk.o)          libbb/lib.a(appletlib.o) (awk_main)
editors/lib.a(cmp.o)          libbb/lib.a(appletlib.o) (cmp_main)
editors/lib.a(sed.o)          libbb/lib.a(appletlib.o) (sed_main)
editors/lib.a(vi.o)           libbb/lib.a(appletlib.o) (vi_main)
findutils/lib.a(find.o)       libbb/lib.a(appletlib.o) (find_main)
findutils/lib.a(grep.o)       libbb/lib.a(appletlib.o) (grep_main)
findutils/lib.a(xargs.o)      libbb/lib.a(appletlib.o) (xargs_main)
libbb/lib.a(ask_confirmation.o)
                              coreutils/lib.a(mv.o) (bb_ask_confirmation)
libbb/lib.a(auto_string.o)    networking/lib.a(interface.o) (auto_string)
libbb/lib.a(bb_do_delay.o)    loginutils/lib.a(login.o) (bb_do_delay)
libbb/lib.a(bb_pwd.o)         debianutils/lib.a(start_stop_daemon.o) (xgetpwuid)
libbb/lib.a(change_identity.o)
                              loginutils/lib.a(login.o) (change_identity)
libbb/lib.a(chomp.o)          networking/lib.a(netstat.o) (chomp)
libbb/lib.a(common_bufsiz.o)  loginutils/lib.a(login.o) (bb_common_bufsiz1)
libbb/lib.a(concat_path_file.o)
                              shell/lib.a(ash.o) (concat_path_file)
libbb/lib.a(concat_subpath_file.o)
                              coreutils/lib.a(du.o) (concat_subpath_file)
libbb/lib.a(copy_file.o)      coreutils/lib.a(cp.o) (copy_file)
libbb/lib.a(correct_password.o)
                              loginutils/lib.a(login.o) (ask_and_check_password)
libbb/lib.a(crc32.o)          miscutils/lib.a(flash_eraseall.o) (crc32_filltable)
libbb/lib.a(device_open.o)    sysklogd/lib.a(syslogd_and_logger.o) (device_open)
libbb/lib.a(endofname.o)      shell/lib.a(ash.o) (endofname)
libbb/lib.a(executable.o)     debianutils/lib.a(which.o) (file_is_executable)
libbb/lib.a(fclose_nonstdin.o)
                              miscutils/lib.a(strings.o) (fclose_if_not_stdin)
libbb/lib.a(fflush_stdout_and_exit.o)
                              miscutils/lib.a(strings.o) (fflush_stdout_and_exit)
libbb/lib.a(fgets_str.o)      networking/lib.a(netstat.o) (xmalloc_fgets_str)
libbb/lib.a(find_mount_point.o)
                              util-linux/lib.a(fsck_minix.o) (find_mount_point)
libbb/lib.a(find_pid_by_name.o)
                              procps/lib.a(kill.o) (find_pid_by_name)
libbb/lib.a(get_line_from_file.o)
                              coreutils/lib.a(sort.o) (bb_get_chunk_from_file)
libbb/lib.a(get_shell_name.o)
                              util-linux/lib.a(flock.o) (get_shell_name)
libbb/lib.a(get_volsize.o)    util-linux/lib.a(mkswap.o) (get_volume_size_in_bytes)
libbb/lib.a(getopt32.o)       loginutils/lib.a(chpasswd.o) (getopt32)
libbb/lib.a(getpty.o)         networking/lib.a(telnetd.o) (xgetpty)
libbb/lib.a(hash_md5_sha.o)   util-linux/volume_id/lib.a(hfs.o) (md5_begin)
libbb/lib.a(herror_msg.o)     networking/lib.a(arp.o) (bb_herror_msg_and_die)
libbb/lib.a(human_readable.o)
                              coreutils/lib.a(df.o) (make_human_readable_str)
libbb/lib.a(in_ether.o)       networking/lib.a(ifconfig.o) (in_ether)
libbb/lib.a(inet_cksum.o)     networking/lib.a(ping.o) (inet_cksum)
libbb/lib.a(inet_common.o)    networking/lib.a(interface.o) (INET_resolve)
libbb/lib.a(inode_hash.o)     coreutils/lib.a(du.o) (is_in_ino_dev_hashtable)
libbb/lib.a(isdirectory.o)    coreutils/lib.a(ln.o) (is_directory)
libbb/lib.a(lineedit.o)       shell/lib.a(ash.o) (new_line_input_t)
libbb/lib.a(lineedit_ptr_hack.o)
                              libbb/lib.a(lineedit.o) (lineedit_ptr_to_statics)
libbb/lib.a(llist.o)          modutils/lib.a(modprobe.o) (llist_add_to)
libbb/lib.a(logenv.o)         networking/lib.a(zcip.o) (bb_logenv_override)
libbb/lib.a(login.o)          networking/lib.a(telnetd.o) (print_login_issue)
libbb/lib.a(loop.o)           util-linux/lib.a(mount.o) (del_loop)
libbb/lib.a(make_directory.o)
                              util-linux/lib.a(mdev.o) (bb_make_directory)
libbb/lib.a(makedev.o)        util-linux/lib.a(mdev.o) (bb_makedev)
libbb/lib.a(match_fstype.o)   util-linux/lib.a(mount.o) (match_fstype)
libbb/lib.a(mode_string.o)    archival/libarchive/lib.a(header_verbose_list.o) (bb_mode_string)
libbb/lib.a(nuke_str.o)       libbb/lib.a(correct_password.o) (nuke_str)
libbb/lib.a(parse_config.o)   modutils/lib.a(modprobe.o) (config_open2)
libbb/lib.a(parse_mode.o)     shell/lib.a(ash.o) (bb_parse_mode)
libbb/lib.a(perror_nomsg_and_die.o)
                              modutils/lib.a(modprobe.o) (bb_perror_nomsg_and_die)
libbb/lib.a(pidfile.o)        miscutils/lib.a(crond.o) (write_pidfile)
libbb/lib.a(print_flags.o)    networking/lib.a(arp.o) (print_flags_separated)
libbb/lib.a(printable.o)      networking/lib.a(netstat.o) (fputc_printable)
libbb/lib.a(printable_string.o)
                              coreutils/lib.a(ls.o) (printable_string)
libbb/lib.a(process_escape_sequence.o)
                              shell/lib.a(ash.o) (bb_process_escape_sequence)
libbb/lib.a(procps.o)         procps/lib.a(top.o) (clear_username_cache)
libbb/lib.a(pw_encrypt.o)     loginutils/lib.a(chpasswd.o) (crypt_make_pw_salt)
libbb/lib.a(read_key.o)       miscutils/lib.a(less.o) (read_key)
libbb/lib.a(read_printf.o)    shell/lib.a(ash.o) (nonblock_immune_read)
libbb/lib.a(recursive_action.o)
                              modutils/lib.a(insmod.o) (recursive_action)
libbb/lib.a(remove_file.o)    coreutils/lib.a(mv.o) (remove_file)
libbb/lib.a(replace.o)        findutils/lib.a(find.o) (count_strstr)
libbb/lib.a(run_shell.o)      loginutils/lib.a(login.o) (run_shell)
libbb/lib.a(safe_gethostname.o)
                              sysklogd/lib.a(syslogd_and_logger.o) (safe_gethostname)
libbb/lib.a(safe_poll.o)      miscutils/lib.a(less.o) (safe_poll)
libbb/lib.a(safe_strncpy.o)   loginutils/lib.a(login.o) (safe_strncpy)
libbb/lib.a(setup_environment.o)
                              loginutils/lib.a(login.o) (setup_environment)
libbb/lib.a(simplify_path.o)  util-linux/lib.a(mount.o) (bb_simplify_path)
libbb/lib.a(single_argv.o)    coreutils/lib.a(dirname.o) (single_argv)
libbb/lib.a(skip_whitespace.o)
                              networking/lib.a(interface.o) (skip_whitespace)
libbb/lib.a(sysconf.o)        findutils/lib.a(xargs.o) (bb_arg_max)
libbb/lib.a(u_signal_names.o)
                              procps/lib.a(kill.o) (get_signum)
libbb/lib.a(udp_io.o)         networking/lib.a(traceroute.o) (socket_want_pktinfo)
libbb/lib.a(unicode.o)        libbb/lib.a(lineedit.o) (bb_wcrtomb)
libbb/lib.a(update_passwd.o)  loginutils/lib.a(chpasswd.o) (update_passwd)
libbb/lib.a(uuencode.o)       coreutils/lib.a(uudecode.o) (bb_uuencode)
libbb/lib.a(vfork_daemon_rexec.o)
                              e2fsprogs/lib.a(fsck.o) (spawn)
libbb/lib.a(wfopen.o)         networking/lib.a(interface.o) (fopen_or_warn)
libbb/lib.a(wfopen_input.o)   miscutils/lib.a(strings.o) (fopen_or_warn_stdin)
libbb/lib.a(xatonum.o)        libbb/lib.a(get_volsize.o) (xatoull_range)
libbb/lib.a(xconnect.o)       networking/lib.a(ping.o) (setsockopt_int)
libbb/lib.a(xgetcwd.o)        coreutils/lib.a(pwd.o) (xrealloc_getcwd_or_warn)
libbb/lib.a(xreadlink.o)      modutils/lib.a(insmod.o) (xmalloc_readlink)
libbb/lib.a(xrealloc_vector.o)
                              miscutils/lib.a(less.o) (xrealloc_vector_helper)
libbb/lib.a(xregcomp.o)       coreutils/lib.a(expr.o) (xregcomp)
libbb/lib.a(bb_askpass.o)     libbb/lib.a(correct_password.o) (bb_ask)
libbb/lib.a(bb_bswap_64.o)    libbb/lib.a(hash_md5_sha.o) (bb_bswap_64)
libbb/lib.a(bb_qsort.o)       libbb/lib.a(lineedit.o) (qsort_string_vector)
libbb/lib.a(perror_nomsg.o)   libbb/lib.a(update_passwd.o) (bb_perror_nomsg)
libpwdgrp/lib.a(pwd_grp.o)    libbb/lib.a(correct_password.o) (bb_internal_getspnam_r)
libpwdgrp/lib.a(uidgid_get.o)
                              coreutils/lib.a(chown.o) (parse_chown_usergroup_or_die)
/home/paldier/k3_384/release/src-rt-6.x.4708/toolchains/hndtools-arm-linux-2.6.36-uclibc-4.5.3/bin/../arm-brcm-linux-uclibcgnueabi/sysroot/usr/lib/uclibc_nonshared.a(atexit.os)
                              editors/lib.a(sed.o) (atexit)

Allocating common symbols
Common symbol       size              file

bb_common_bufsiz1   0x400             libbb/lib.a(common_bufsiz.o)
ash_ptr_to_globals_var
                    0x4               shell/lib.a(ash_ptr_hack.o)
wrote_pidfile       0x4               libbb/lib.a(pidfile.o)
ash_ptr_to_globals_memstack
                    0x4               shell/lib.a(ash_ptr_hack.o)
die_func            0x4               libbb/lib.a(xfunc_die.o)
test_ptr_to_statics
                    0x4               coreutils/lib.a(test_ptr_hack.o)
lineedit_ptr_to_statics
                    0x4               libbb/lib.a(lineedit_ptr_hack.o)
ptr_to_globals      0x4               libbb/lib.a(ptr_to_globals.o)
ash_ptr_to_globals_misc
                    0x4               shell/lib.a(ash_ptr_hack.o)
option_mask32       0x4               libbb/lib.a(getopt32.o)
interface_opt_a     0x4               networking/lib.a(interface.o)
applet_name         0x4               libbb/lib.a(appletlib.o)
opt_complementary   0x4               libbb/lib.a(getopt32.o)
global_crc32_table  0x4               libbb/lib.a(crc32.o)
bb_errno            0x4               libbb/lib.a(ptr_to_globals.o)
bb_got_signal       0x4               libbb/lib.a(signals.o)
applet_long_options
                    0x4               libbb/lib.a(getopt32.o)

Discarded input sections

 .data          0x00000000        0x4 /home/paldier/k3_384/release/src-rt-6.x.4708/toolchains/hndtools-arm-linux-2.6.36-uclibc-4.5.3/bin/../arm-brcm-linux-uclibcgnueabi/sysroot/usr/lib/crt1.o
 .bss           0x00000000        0x0 /home/paldier/k3_384/release/src-rt-6.x.4708/toolchains/hndtools-arm-linux-2.6.36-uclibc-4.5.3/bin/../arm-brcm-linux-uclibcgnueabi/sysroot/usr/lib/crt1.o
 .note.GNU-stack
                0x00000000        0x0 /home/paldier/k3_384/release/src-rt-6.x.4708/toolchains/hndtools-arm-linux-2.6.36-uclibc-4.5.3/bin/../arm-brcm-linux-uclibcgnueabi/sysroot/usr/lib/crt1.o
 .text          0x00000000        0x0 /home/paldier/k3_384/release/src-rt-6.x.4708/toolchains/hndtools-arm-linux-2.6.36-uclibc-4.5.3/bin/../arm-brcm-linux-uclibcgnueabi/sysroot/usr/lib/crti.o
 .data          0x00000000        0x0 /home/paldier/k3_384/release/src-rt-6.x.4708/toolchains/hndtools-arm-linux-2.6.36-uclibc-4.5.3/bin/../arm-brcm-linux-uclibcgnueabi/sysroot/usr/lib/crti.o
 .bss           0x00000000        0x0 /home/paldier/k3_384/release/src-rt-6.x.4708/toolchains/hndtools-arm-linux-2.6.36-uclibc-4.5.3/bin/../arm-brcm-linux-uclibcgnueabi/sysroot/usr/lib/crti.o
 .note.GNU-stack
                0x00000000        0x0 /home/paldier/k3_384/release/src-rt-6.x.4708/toolchains/hndtools-arm-linux-2.6.36-uclibc-4.5.3/bin/../arm-brcm-linux-uclibcgnueabi/sysroot/usr/lib/crti.o
 .note.GNU-stack
                0x00000000        0x0 /home/paldier/k3_384/release/src-rt-6.x.4708/toolchains/hndtools-arm-linux-2.6.36-uclibc-4.5.3/bin/../lib/gcc/arm-brcm-linux-uclibcgnueabi/4.5.3/crtbegin.o
 .text          0x00000000        0x0 applets/built-in.o
 .data          0x00000000        0x0 applets/built-in.o
 .bss           0x00000000        0x0 applets/built-in.o
 .note.GNU-stack
                0x00000000        0x0 applets/built-in.o
 .text          0x00000000        0x0 libbb/lib.a(appletlib.o)
 .data          0x00000000        0x0 libbb/lib.a(appletlib.o)
 .bss           0x00000000        0x0 libbb/lib.a(appletlib.o)
 .note.GNU-stack
                0x00000000        0x0 libbb/lib.a(appletlib.o)
 .text          0x00000000        0x0 libbb/lib.a(compare_string_array.o)
 .data          0x00000000        0x0 libbb/lib.a(compare_string_array.o)
 .bss           0x00000000        0x0 libbb/lib.a(compare_string_array.o)
 .text.is_suffixed_with
                0x00000000       0x4c libbb/lib.a(compare_string_array.o)
 .text.index_in_str_array
                0x00000000       0x40 libbb/lib.a(compare_string_array.o)
 .note.GNU-stack
                0x00000000        0x0 libbb/lib.a(compare_string_array.o)
 .text          0x00000000        0x0 libbb/lib.a(default_error_retval.o)
 .data          0x00000000        0x0 libbb/lib.a(default_error_retval.o)
 .bss           0x00000000        0x0 libbb/lib.a(default_error_retval.o)
 .note.GNU-stack
                0x00000000        0x0 libbb/lib.a(default_error_retval.o)
 .text          0x00000000        0x0 libbb/lib.a(get_last_path_component.o)
 .data          0x00000000        0x0 libbb/lib.a(get_last_path_component.o)
 .bss           0x00000000        0x0 libbb/lib.a(get_last_path_component.o)
 .note.GNU-stack
                0x00000000        0x0 libbb/lib.a(get_last_path_component.o)
 .text          0x00000000        0x0 libbb/lib.a(last_char_is.o)
 .data          0x00000000        0x0 libbb/lib.a(last_char_is.o)
 .bss           0x00000000        0x0 libbb/lib.a(last_char_is.o)
 .note.GNU-stack
                0x00000000        0x0 libbb/lib.a(last_char_is.o)
 .text          0x00000000        0x0 libbb/lib.a(messages.o)
 .data          0x00000000        0x0 libbb/lib.a(messages.o)
 .bss           0x00000000        0x0 libbb/lib.a(messages.o)
 .note.GNU-stack
                0x00000000        0x0 libbb/lib.a(messages.o)
 .text          0x00000000        0x0 libbb/lib.a(ptr_to_globals.o)
 .data          0x00000000        0x0 libbb/lib.a(ptr_to_globals.o)
 .bss           0x00000000        0x0 libbb/lib.a(ptr_to_globals.o)
 .note.GNU-stack
                0x00000000        0x0 libbb/lib.a(ptr_to_globals.o)
 .text          0x00000000        0x0 libbb/lib.a(verror_msg.o)
 .data          0x00000000        0x0 libbb/lib.a(verror_msg.o)
 .bss           0x00000000        0x0 libbb/lib.a(verror_msg.o)
 .note.GNU-stack
                0x00000000        0x0 libbb/lib.a(verror_msg.o)
 .text          0x00000000        0x0 libbb/lib.a(xfunc_die.o)
 .data          0x00000000        0x0 libbb/lib.a(xfunc_die.o)
 .bss           0x00000000        0x0 libbb/lib.a(xfunc_die.o)
 .note.GNU-stack
                0x00000000        0x0 libbb/lib.a(xfunc_die.o)
 .text          0x00000000        0x0 libbb/lib.a(xfuncs.o)
 .data          0x00000000        0x0 libbb/lib.a(xfuncs.o)
 .bss           0x00000000        0x0 libbb/lib.a(xfuncs.o)
 .text.wait_for_exitstatus
                0x00000000       0x3c libbb/lib.a(xfuncs.o)
 .note.GNU-stack
                0x00000000        0x0 libbb/lib.a(xfuncs.o)
 .text          0x00000000        0x0 libbb/lib.a(xfuncs_printf.o)
 .data          0x00000000        0x0 libbb/lib.a(xfuncs_printf.o)
 .bss           0x00000000        0x0 libbb/lib.a(xfuncs_printf.o)
 .text.xopen_nonblocking
                0x00000000        0x8 libbb/lib.a(xfuncs_printf.o)
 .text.rename_or_warn
                0x00000000       0x44 libbb/lib.a(xfuncs_printf.o)
 .text.xprint_and_close_file
                0x00000000       0x3c libbb/lib.a(xfuncs_printf.o)
 .text.xsetegid
                0x00000000       0x2c libbb/lib.a(xfuncs_printf.o)
 .text.xseteuid
                0x00000000       0x2c libbb/lib.a(xfuncs_printf.o)
 .text.xopen_as_uid_gid
                0x00000000       0x5c libbb/lib.a(xfuncs_printf.o)
 .text.xfchdir  0x00000000       0x2c libbb/lib.a(xfuncs_printf.o)
 .text.xchroot  0x00000000       0x48 libbb/lib.a(xfuncs_printf.o)
 .text.selinux_or_die
                0x00000000       0x20 libbb/lib.a(xfuncs_printf.o)
 .text.xvfork_parent_waits_and_exits
                0x00000000       0x68 libbb/lib.a(xfuncs_printf.o)
 .note.GNU-stack
                0x00000000        0x0 libbb/lib.a(xfuncs_printf.o)
 .text          0x00000000        0x0 libbb/lib.a(copyfd.o)
 .data          0x00000000        0x0 libbb/lib.a(copyfd.o)
 .bss           0x00000000        0x0 libbb/lib.a(copyfd.o)
 .note.GNU-stack
                0x00000000        0x0 libbb/lib.a(copyfd.o)
 .text          0x00000000        0x0 libbb/lib.a(full_write.o)
 .data          0x00000000        0x0 libbb/lib.a(full_write.o)
 .bss           0x00000000        0x0 libbb/lib.a(full_write.o)
 .note.GNU-stack
                0x00000000        0x0 libbb/lib.a(full_write.o)
 .text          0x00000000        0x0 libbb/lib.a(perror_msg.o)
 .data          0x00000000        0x0 libbb/lib.a(perror_msg.o)
 .bss           0x00000000        0x0 libbb/lib.a(perror_msg.o)
 .note.GNU-stack
                0x00000000        0x0 libbb/lib.a(perror_msg.o)
 .text          0x00000000        0x0 libbb/lib.a(read.o)
 .data          0x00000000        0x0 libbb/lib.a(read.o)
 .bss           0x00000000        0x0 libbb/lib.a(read.o)
 .note.GNU-stack
                0x00000000        0x0 libbb/lib.a(read.o)
 .text          0x00000000        0x0 libbb/lib.a(safe_write.o)
 .data          0x00000000        0x0 libbb/lib.a(safe_write.o)
 .bss           0x00000000        0x0 libbb/lib.a(safe_write.o)
 .note.GNU-stack
                0x00000000        0x0 libbb/lib.a(safe_write.o)
 .text          0x00000000        0x0 libbb/lib.a(signals.o)
 .data          0x00000000        0x0 libbb/lib.a(signals.o)
 .bss           0x00000000        0x0 libbb/lib.a(signals.o)
 .text.sig_block
                0x00000000       0x34 libbb/lib.a(signals.o)
 .text.wait_for_any_sig
                0x00000000       0x1c libbb/lib.a(signals.o)
 .note.GNU-stack
                0x00000000        0x0 libbb/lib.a(signals.o)
 .text          0x00000000        0x0 libbb/lib.a(time.o)
 .data          0x00000000        0x0 libbb/lib.a(time.o)
 .bss           0x00000000        0x0 libbb/lib.a(time.o)
 .text.monotonic_ns
                0x00000000       0x30 libbb/lib.a(time.o)
 .note.GNU-stack
                0x00000000        0x0 libbb/lib.a(time.o)
 .text          0x00000000        0x0 libbb/lib.a(bb_strtonum.o)
 .data          0x00000000        0x0 libbb/lib.a(bb_strtonum.o)
 .bss           0x00000000        0x0 libbb/lib.a(bb_strtonum.o)
 .note.GNU-stack
                0x00000000        0x0 libbb/lib.a(bb_strtonum.o)
 .text          0x00000000        0x0 loginutils/lib.a(chpasswd.o)
 .data          0x00000000        0x0 loginutils/lib.a(chpasswd.o)
 .bss           0x00000000        0x0 loginutils/lib.a(chpasswd.o)
 .note.GNU-stack
                0x00000000        0x0 loginutils/lib.a(chpasswd.o)
 .text          0x00000000        0x0 loginutils/lib.a(login.o)
 .data          0x00000000        0x0 loginutils/lib.a(login.o)
 .bss           0x00000000        0x0 loginutils/lib.a(login.o)
 .note.GNU-stack
                0x00000000        0x0 loginutils/lib.a(login.o)
 .text          0x00000000        0x0 miscutils/lib.a(crond.o)
 .data          0x00000000        0x0 miscutils/lib.a(crond.o)
 .bss           0x00000000        0x0 miscutils/lib.a(crond.o)
 .note.GNU-stack
                0x00000000        0x0 miscutils/lib.a(crond.o)
 .text          0x00000000        0x0 miscutils/lib.a(devmem.o)
 .data          0x00000000        0x0 miscutils/lib.a(devmem.o)
 .bss           0x00000000        0x0 miscutils/lib.a(devmem.o)
 .note.GNU-stack
                0x00000000        0x0 miscutils/lib.a(devmem.o)
 .text          0x00000000        0x0 miscutils/lib.a(flash_eraseall.o)
 .data          0x00000000        0x0 miscutils/lib.a(flash_eraseall.o)
 .bss           0x00000000        0x0 miscutils/lib.a(flash_eraseall.o)
 .note.GNU-stack
                0x00000000        0x0 miscutils/lib.a(flash_eraseall.o)
 .text          0x00000000        0x0 miscutils/lib.a(ionice.o)
 .data          0x00000000        0x0 miscutils/lib.a(ionice.o)
 .bss           0x00000000        0x0 miscutils/lib.a(ionice.o)
 .note.GNU-stack
                0x00000000        0x0 miscutils/lib.a(ionice.o)
 .text          0x00000000        0x0 miscutils/lib.a(less.o)
 .data          0x00000000        0x0 miscutils/lib.a(less.o)
 .bss           0x00000000        0x0 miscutils/lib.a(less.o)
 .note.GNU-stack
                0x00000000        0x0 miscutils/lib.a(less.o)
 .text          0x00000000        0x0 miscutils/lib.a(strings.o)
 .data          0x00000000        0x0 miscutils/lib.a(strings.o)
 .bss           0x00000000        0x0 miscutils/lib.a(strings.o)
 .note.GNU-stack
                0x00000000        0x0 miscutils/lib.a(strings.o)
 .text          0x00000000        0x0 modutils/lib.a(insmod.o)
 .data          0x00000000        0x0 modutils/lib.a(insmod.o)
 .bss           0x00000000        0x0 modutils/lib.a(insmod.o)
 .note.GNU-stack
                0x00000000        0x0 modutils/lib.a(insmod.o)
 .text          0x00000000        0x0 modutils/lib.a(lsmod.o)
 .data          0x00000000        0x0 modutils/lib.a(lsmod.o)
 .bss           0x00000000        0x0 modutils/lib.a(lsmod.o)
 .note.GNU-stack
                0x00000000        0x0 modutils/lib.a(lsmod.o)
 .text          0x00000000        0x0 modutils/lib.a(modprobe.o)
 .data          0x00000000        0x0 modutils/lib.a(modprobe.o)
 .bss           0x00000000        0x0 modutils/lib.a(modprobe.o)
 .note.GNU-stack
                0x00000000        0x0 modutils/lib.a(modprobe.o)
 .text          0x00000000        0x0 modutils/lib.a(modutils.o)
 .data          0x00000000        0x0 modutils/lib.a(modutils.o)
 .bss           0x00000000        0x0 modutils/lib.a(modutils.o)
 .text.moddb_free
                0x00000000       0x4c modutils/lib.a(modutils.o)
 .text.replace_underscores
                0x00000000       0x1c modutils/lib.a(modutils.o)
 .note.GNU-stack
                0x00000000        0x0 modutils/lib.a(modutils.o)
 .text          0x00000000        0x0 modutils/lib.a(rmmod.o)
 .data          0x00000000        0x0 modutils/lib.a(rmmod.o)
 .bss           0x00000000        0x0 modutils/lib.a(rmmod.o)
 .note.GNU-stack
                0x00000000        0x0 modutils/lib.a(rmmod.o)
 .text          0x00000000        0x0 networking/lib.a(arp.o)
 .data          0x00000000        0x0 networking/lib.a(arp.o)
 .bss           0x00000000        0x0 networking/lib.a(arp.o)
 .note.GNU-stack
                0x00000000        0x0 networking/lib.a(arp.o)
 .text          0x00000000        0x0 networking/lib.a(ether-wake.o)
 .data          0x00000000        0x0 networking/lib.a(ether-wake.o)
 .bss           0x00000000        0x0 networking/lib.a(ether-wake.o)
 .note.GNU-stack
                0x00000000        0x0 networking/lib.a(ether-wake.o)
 .text          0x00000000        0x0 networking/lib.a(ifconfig.o)
 .data          0x00000000        0x0 networking/lib.a(ifconfig.o)
 .bss           0x00000000        0x0 networking/lib.a(ifconfig.o)
 .note.GNU-stack
                0x00000000        0x0 networking/lib.a(ifconfig.o)
 .text          0x00000000        0x0 networking/lib.a(interface.o)
 .data          0x00000000        0x0 networking/lib.a(interface.o)
 .bss           0x00000000        0x0 networking/lib.a(interface.o)
 .note.GNU-stack
                0x00000000        0x0 networking/lib.a(interface.o)
 .text          0x00000000        0x0 networking/lib.a(netstat.o)
 .data          0x00000000        0x0 networking/lib.a(netstat.o)
 .bss           0x00000000        0x0 networking/lib.a(netstat.o)
 .note.GNU-stack
                0x00000000        0x0 networking/lib.a(netstat.o)
 .text          0x00000000        0x0 networking/lib.a(nslookup.o)
 .data          0x00000000        0x0 networking/lib.a(nslookup.o)
 .bss           0x00000000        0x0 networking/lib.a(nslookup.o)
 .note.GNU-stack
                0x00000000        0x0 networking/lib.a(nslookup.o)
 .text          0x00000000        0x0 networking/lib.a(ping.o)
 .data          0x00000000        0x0 networking/lib.a(ping.o)
 .bss           0x00000000        0x0 networking/lib.a(ping.o)
 .note.GNU-stack
                0x00000000        0x0 networking/lib.a(ping.o)
 .text          0x00000000        0x0 networking/lib.a(route.o)
 .data          0x00000000        0x0 networking/lib.a(route.o)
 .bss           0x00000000        0x0 networking/lib.a(route.o)
 .note.GNU-stack
                0x00000000        0x0 networking/lib.a(route.o)
 .text          0x00000000        0x0 networking/lib.a(telnetd.o)
 .data          0x00000000        0x0 networking/lib.a(telnetd.o)
 .bss           0x00000000        0x0 networking/lib.a(telnetd.o)
 .note.GNU-stack
                0x00000000        0x0 networking/lib.a(telnetd.o)
 .text          0x00000000        0x0 networking/lib.a(traceroute.o)
 .data          0x00000000        0x0 networking/lib.a(traceroute.o)
 .bss           0x00000000        0x0 networking/lib.a(traceroute.o)
 .note.GNU-stack
                0x00000000        0x0 networking/lib.a(traceroute.o)
 .text          0x00000000        0x0 networking/lib.a(vconfig.o)
 .data          0x00000000        0x0 networking/lib.a(vconfig.o)
 .bss           0x00000000        0x0 networking/lib.a(vconfig.o)
 .note.GNU-stack
                0x00000000        0x0 networking/lib.a(vconfig.o)
 .text          0x00000000        0x0 networking/lib.a(zcip.o)
 .data          0x00000000        0x0 networking/lib.a(zcip.o)
 .bss           0x00000000        0x0 networking/lib.a(zcip.o)
 .note.GNU-stack
                0x00000000        0x0 networking/lib.a(zcip.o)
 .text          0x00000000        0x0 networking/udhcp/lib.a(dhcpc.o)
 .data          0x00000000        0x0 networking/udhcp/lib.a(dhcpc.o)
 .bss           0x00000000        0x0 networking/udhcp/lib.a(dhcpc.o)
 .note.GNU-stack
                0x00000000        0x0 networking/udhcp/lib.a(dhcpc.o)
 .text          0x00000000        0x0 networking/udhcp/lib.a(packet.o)
 .data          0x00000000        0x0 networking/udhcp/lib.a(packet.o)
 .bss           0x00000000        0x0 networking/udhcp/lib.a(packet.o)
 .note.GNU-stack
                0x00000000        0x0 networking/udhcp/lib.a(packet.o)
 .text          0x00000000        0x0 networking/udhcp/lib.a(signalpipe.o)
 .data          0x00000000        0x0 networking/udhcp/lib.a(signalpipe.o)
 .bss           0x00000000        0x0 networking/udhcp/lib.a(signalpipe.o)
 .note.GNU-stack
                0x00000000        0x0 networking/udhcp/lib.a(signalpipe.o)
 .text          0x00000000        0x0 networking/udhcp/lib.a(socket.o)
 .data          0x00000000        0x0 networking/udhcp/lib.a(socket.o)
 .bss           0x00000000        0x0 networking/udhcp/lib.a(socket.o)
 .note.GNU-stack
                0x00000000        0x0 networking/udhcp/lib.a(socket.o)
 .text          0x00000000        0x0 networking/udhcp/lib.a(arpping.o)
 .data          0x00000000        0x0 networking/udhcp/lib.a(arpping.o)
 .bss           0x00000000        0x0 networking/udhcp/lib.a(arpping.o)
 .note.GNU-stack
                0x00000000        0x0 networking/udhcp/lib.a(arpping.o)
 .text          0x00000000        0x0 networking/udhcp/lib.a(common.o)
 .data          0x00000000        0x0 networking/udhcp/lib.a(common.o)
 .bss           0x00000000        0x0 networking/udhcp/lib.a(common.o)
 .note.GNU-stack
                0x00000000        0x0 networking/udhcp/lib.a(common.o)
 .text          0x00000000        0x0 procps/lib.a(free.o)
 .data          0x00000000        0x0 procps/lib.a(free.o)
 .bss           0x00000000        0x0 procps/lib.a(free.o)
 .note.GNU-stack
                0x00000000        0x0 procps/lib.a(free.o)
 .text          0x00000000        0x0 procps/lib.a(kill.o)
 .data          0x00000000        0x0 procps/lib.a(kill.o)
 .bss           0x00000000        0x0 procps/lib.a(kill.o)
 .note.GNU-stack
                0x00000000        0x0 procps/lib.a(kill.o)
 .text          0x00000000        0x0 procps/lib.a(pidof.o)
 .data          0x00000000        0x0 procps/lib.a(pidof.o)
 .bss           0x00000000        0x0 procps/lib.a(pidof.o)
 .note.GNU-stack
                0x00000000        0x0 procps/lib.a(pidof.o)
 .text          0x00000000        0x0 procps/lib.a(ps.o)
 .data          0x00000000        0x0 procps/lib.a(ps.o)
 .bss           0x00000000        0x0 procps/lib.a(ps.o)
 .note.GNU-stack
                0x00000000        0x0 procps/lib.a(ps.o)
 .text          0x00000000        0x0 procps/lib.a(renice.o)
 .data          0x00000000        0x0 procps/lib.a(renice.o)
 .bss           0x00000000        0x0 procps/lib.a(renice.o)
 .note.GNU-stack
                0x00000000        0x0 procps/lib.a(renice.o)
 .text          0x00000000        0x0 procps/lib.a(top.o)
 .data          0x00000000        0x0 procps/lib.a(top.o)
 .bss           0x00000000        0x0 procps/lib.a(top.o)
 .note.GNU-stack
                0x00000000        0x0 procps/lib.a(top.o)
 .text          0x00000000        0x0 procps/lib.a(uptime.o)
 .data          0x00000000        0x0 procps/lib.a(uptime.o)
 .bss           0x00000000        0x0 procps/lib.a(uptime.o)
 .note.GNU-stack
                0x00000000        0x0 procps/lib.a(uptime.o)
 .text          0x00000000        0x0 procps/lib.a(watch.o)
 .data          0x00000000        0x0 procps/lib.a(watch.o)
 .bss           0x00000000        0x0 procps/lib.a(watch.o)
 .note.GNU-stack
                0x00000000        0x0 procps/lib.a(watch.o)
 .text          0x00000000        0x0 shell/lib.a(ash.o)
 .data          0x00000000        0x0 shell/lib.a(ash.o)
 .bss           0x00000000        0x0 shell/lib.a(ash.o)
 .note.GNU-stack
                0x00000000        0x0 shell/lib.a(ash.o)
 .text          0x00000000        0x0 shell/lib.a(ash_ptr_hack.o)
 .data          0x00000000        0x0 shell/lib.a(ash_ptr_hack.o)
 .bss           0x00000000        0x0 shell/lib.a(ash_ptr_hack.o)
 .note.GNU-stack
                0x00000000        0x0 shell/lib.a(ash_ptr_hack.o)
 .text          0x00000000        0x0 shell/lib.a(math.o)
 .data          0x00000000        0x0 shell/lib.a(math.o)
 .bss           0x00000000        0x0 shell/lib.a(math.o)
 .note.GNU-stack
                0x00000000        0x0 shell/lib.a(math.o)
 .text          0x00000000        0x0 shell/lib.a(shell_common.o)
 .data          0x00000000        0x0 shell/lib.a(shell_common.o)
 .bss           0x00000000        0x0 shell/lib.a(shell_common.o)
 .note.GNU-stack
                0x00000000        0x0 shell/lib.a(shell_common.o)
 .text          0x00000000        0x0 sysklogd/lib.a(klogd.o)
 .data          0x00000000        0x0 sysklogd/lib.a(klogd.o)
 .bss           0x00000000        0x0 sysklogd/lib.a(klogd.o)
 .note.GNU-stack
                0x00000000        0x0 sysklogd/lib.a(klogd.o)
 .text          0x00000000        0x0 sysklogd/lib.a(syslogd_and_logger.o)
 .data          0x00000000        0x0 sysklogd/lib.a(syslogd_and_logger.o)
 .bss           0x00000000        0x0 sysklogd/lib.a(syslogd_and_logger.o)
 .note.GNU-stack
                0x00000000        0x0 sysklogd/lib.a(syslogd_and_logger.o)
 .text          0x00000000        0x0 util-linux/lib.a(blkid.o)
 .data          0x00000000        0x0 util-linux/lib.a(blkid.o)
 .bss           0x00000000        0x0 util-linux/lib.a(blkid.o)
 .note.GNU-stack
                0x00000000        0x0 util-linux/lib.a(blkid.o)
 .text          0x00000000        0x0 util-linux/lib.a(dmesg.o)
 .data          0x00000000        0x0 util-linux/lib.a(dmesg.o)
 .bss           0x00000000        0x0 util-linux/lib.a(dmesg.o)
 .note.GNU-stack
                0x00000000        0x0 util-linux/lib.a(dmesg.o)
 .text          0x00000000        0x0 util-linux/lib.a(fdisk.o)
 .data          0x00000000        0x0 util-linux/lib.a(fdisk.o)
 .bss           0x00000000        0x0 util-linux/lib.a(fdisk.o)
 .note.GNU-stack
                0x00000000        0x0 util-linux/lib.a(fdisk.o)
 .text          0x00000000        0x0 util-linux/lib.a(flock.o)
 .data          0x00000000        0x0 util-linux/lib.a(flock.o)
 .bss           0x00000000        0x0 util-linux/lib.a(flock.o)
 .note.GNU-stack
                0x00000000        0x0 util-linux/lib.a(flock.o)
 .text          0x00000000        0x0 util-linux/lib.a(fsck_minix.o)
 .data          0x00000000        0x0 util-linux/lib.a(fsck_minix.o)
 .bss           0x00000000        0x0 util-linux/lib.a(fsck_minix.o)
 .note.GNU-stack
                0x00000000        0x0 util-linux/lib.a(fsck_minix.o)
 .text          0x00000000        0x0 util-linux/lib.a(lsusb.o)
 .data          0x00000000        0x0 util-linux/lib.a(lsusb.o)
 .bss           0x00000000        0x0 util-linux/lib.a(lsusb.o)
 .note.GNU-stack
                0x00000000        0x0 util-linux/lib.a(lsusb.o)
 .text          0x00000000        0x0 util-linux/lib.a(mdev.o)
 .data          0x00000000        0x0 util-linux/lib.a(mdev.o)
 .bss           0x00000000        0x0 util-linux/lib.a(mdev.o)
 .note.GNU-stack
                0x00000000        0x0 util-linux/lib.a(mdev.o)
 .text          0x00000000        0x0 util-linux/lib.a(mkswap.o)
 .data          0x00000000        0x0 util-linux/lib.a(mkswap.o)
 .bss           0x00000000        0x0 util-linux/lib.a(mkswap.o)
 .note.GNU-stack
                0x00000000        0x0 util-linux/lib.a(mkswap.o)
 .text          0x00000000        0x0 util-linux/lib.a(more.o)
 .data          0x00000000        0x0 util-linux/lib.a(more.o)
 .bss           0x00000000        0x0 util-linux/lib.a(more.o)
 .note.GNU-stack
                0x00000000        0x0 util-linux/lib.a(more.o)
 .text          0x00000000        0x0 util-linux/lib.a(mount.o)
 .data          0x00000000        0x0 util-linux/lib.a(mount.o)
 .bss           0x00000000        0x0 util-linux/lib.a(mount.o)
 .note.GNU-stack
                0x00000000        0x0 util-linux/lib.a(mount.o)
 .text          0x00000000        0x0 util-linux/lib.a(swaponoff.o)
 .data          0x00000000        0x0 util-linux/lib.a(swaponoff.o)
 .bss           0x00000000        0x0 util-linux/lib.a(swaponoff.o)
 .note.GNU-stack
                0x00000000        0x0 util-linux/lib.a(swaponoff.o)
 .text          0x00000000        0x0 util-linux/lib.a(umount.o)
 .data          0x00000000        0x0 util-linux/lib.a(umount.o)
 .bss           0x00000000        0x0 util-linux/lib.a(umount.o)
 .note.GNU-stack
                0x00000000        0x0 util-linux/lib.a(umount.o)
 .text          0x00000000        0x0 util-linux/volume_id/lib.a(get_devname.o)
 .data          0x00000000        0x0 util-linux/volume_id/lib.a(get_devname.o)
 .bss           0x00000000        0x0 util-linux/volume_id/lib.a(get_devname.o)
 .note.GNU-stack
                0x00000000        0x0 util-linux/volume_id/lib.a(get_devname.o)
 .text          0x00000000        0x0 util-linux/volume_id/lib.a(volume_id.o)
 .data          0x00000000        0x0 util-linux/volume_id/lib.a(volume_id.o)
 .bss           0x00000000        0x0 util-linux/volume_id/lib.a(volume_id.o)
 .note.GNU-stack
                0x00000000        0x0 util-linux/volume_id/lib.a(volume_id.o)
 .text          0x00000000        0x0 util-linux/volume_id/lib.a(ext.o)
 .data          0x00000000        0x0 util-linux/volume_id/lib.a(ext.o)
 .bss           0x00000000        0x0 util-linux/volume_id/lib.a(ext.o)
 .note.GNU-stack
                0x00000000        0x0 util-linux/volume_id/lib.a(ext.o)
 .text          0x00000000        0x0 util-linux/volume_id/lib.a(fat.o)
 .data          0x00000000        0x0 util-linux/volume_id/lib.a(fat.o)
 .bss           0x00000000        0x0 util-linux/volume_id/lib.a(fat.o)
 .note.GNU-stack
                0x00000000        0x0 util-linux/volume_id/lib.a(fat.o)
 .text          0x00000000        0x0 util-linux/volume_id/lib.a(hfs.o)
 .data          0x00000000        0x0 util-linux/volume_id/lib.a(hfs.o)
 .bss           0x00000000        0x0 util-linux/volume_id/lib.a(hfs.o)
 .note.GNU-stack
                0x00000000        0x0 util-linux/volume_id/lib.a(hfs.o)
 .text          0x00000000        0x0 util-linux/volume_id/lib.a(linux_swap.o)
 .data          0x00000000        0x0 util-linux/volume_id/lib.a(linux_swap.o)
 .bss           0x00000000        0x0 util-linux/volume_id/lib.a(linux_swap.o)
 .note.GNU-stack
                0x00000000        0x0 util-linux/volume_id/lib.a(linux_swap.o)
 .text          0x00000000        0x0 util-linux/volume_id/lib.a(ntfs.o)
 .data          0x00000000        0x0 util-linux/volume_id/lib.a(ntfs.o)
 .bss           0x00000000        0x0 util-linux/volume_id/lib.a(ntfs.o)
 .note.GNU-stack
                0x00000000        0x0 util-linux/volume_id/lib.a(ntfs.o)
 .text          0x00000000        0x0 util-linux/volume_id/lib.a(util.o)
 .data          0x00000000        0x0 util-linux/volume_id/lib.a(util.o)
 .bss           0x00000000        0x0 util-linux/volume_id/lib.a(util.o)
 .note.GNU-stack
                0x00000000        0x0 util-linux/volume_id/lib.a(util.o)
 .text          0x00000000        0x0 archival/lib.a(bbunzip.o)
 .data          0x00000000        0x0 archival/lib.a(bbunzip.o)
 .bss           0x00000000        0x0 archival/lib.a(bbunzip.o)
 .note.GNU-stack
                0x00000000        0x0 archival/lib.a(bbunzip.o)
 .text          0x00000000        0x0 archival/lib.a(gzip.o)
 .data          0x00000000        0x0 archival/lib.a(gzip.o)
 .bss           0x00000000        0x0 archival/lib.a(gzip.o)
 .note.GNU-stack
                0x00000000        0x0 archival/lib.a(gzip.o)
 .text          0x00000000        0x0 archival/lib.a(tar.o)
 .data          0x00000000        0x0 archival/lib.a(tar.o)
 .bss           0x00000000        0x0 archival/lib.a(tar.o)
 .note.GNU-stack
                0x00000000        0x0 archival/lib.a(tar.o)
 .text          0x00000000        0x0 archival/lib.a(unzip.o)
 .data          0x00000000        0x0 archival/lib.a(unzip.o)
 .bss           0x00000000        0x0 archival/lib.a(unzip.o)
 .note.GNU-stack
                0x00000000        0x0 archival/lib.a(unzip.o)
 .text          0x00000000        0x0 archival/libarchive/lib.a(data_extract_all.o)
 .data          0x00000000        0x0 archival/libarchive/lib.a(data_extract_all.o)
 .bss           0x00000000        0x0 archival/libarchive/lib.a(data_extract_all.o)
 .note.GNU-stack
                0x00000000        0x0 archival/libarchive/lib.a(data_extract_all.o)
 .text          0x00000000        0x0 archival/libarchive/lib.a(data_extract_to_stdout.o)
 .data          0x00000000        0x0 archival/libarchive/lib.a(data_extract_to_stdout.o)
 .bss           0x00000000        0x0 archival/libarchive/lib.a(data_extract_to_stdout.o)
 .note.GNU-stack
                0x00000000        0x0 archival/libarchive/lib.a(data_extract_to_stdout.o)
 .text          0x00000000        0x0 archival/libarchive/lib.a(data_skip.o)
 .data          0x00000000        0x0 archival/libarchive/lib.a(data_skip.o)
 .bss           0x00000000        0x0 archival/libarchive/lib.a(data_skip.o)
 .note.GNU-stack
                0x00000000        0x0 archival/libarchive/lib.a(data_skip.o)
 .text          0x00000000        0x0 archival/libarchive/lib.a(decompress_bunzip2.o)
 .data          0x00000000        0x0 archival/libarchive/lib.a(decompress_bunzip2.o)
 .bss           0x00000000        0x0 archival/libarchive/lib.a(decompress_bunzip2.o)
 .note.GNU-stack
                0x00000000        0x0 archival/libarchive/lib.a(decompress_bunzip2.o)
 .text          0x00000000        0x0 archival/libarchive/lib.a(decompress_gunzip.o)
 .data          0x00000000        0x0 archival/libarchive/lib.a(decompress_gunzip.o)
 .bss           0x00000000        0x0 archival/libarchive/lib.a(decompress_gunzip.o)
 .note.GNU-stack
                0x00000000        0x0 archival/libarchive/lib.a(decompress_gunzip.o)
 .text          0x00000000        0x0 archival/libarchive/lib.a(filter_accept_reject_list.o)
 .data          0x00000000        0x0 archival/libarchive/lib.a(filter_accept_reject_list.o)
 .bss           0x00000000        0x0 archival/libarchive/lib.a(filter_accept_reject_list.o)
 .note.GNU-stack
                0x00000000        0x0 archival/libarchive/lib.a(filter_accept_reject_list.o)
 .text          0x00000000        0x0 archival/libarchive/lib.a(find_list_entry.o)
 .data          0x00000000        0x0 archival/libarchive/lib.a(find_list_entry.o)
 .bss           0x00000000        0x0 archival/libarchive/lib.a(find_list_entry.o)
 .note.GNU-stack
                0x00000000        0x0 archival/libarchive/lib.a(find_list_entry.o)
 .text          0x00000000        0x0 archival/libarchive/lib.a(get_header_tar.o)
 .data          0x00000000        0x0 archival/libarchive/lib.a(get_header_tar.o)
 .bss           0x00000000        0x0 archival/libarchive/lib.a(get_header_tar.o)
 .note.GNU-stack
                0x00000000        0x0 archival/libarchive/lib.a(get_header_tar.o)
 .text          0x00000000        0x0 archival/libarchive/lib.a(header_list.o)
 .data          0x00000000        0x0 archival/libarchive/lib.a(header_list.o)
 .bss           0x00000000        0x0 archival/libarchive/lib.a(header_list.o)
 .note.GNU-stack
                0x00000000        0x0 archival/libarchive/lib.a(header_list.o)
 .text          0x00000000        0x0 archival/libarchive/lib.a(header_verbose_list.o)
 .data          0x00000000        0x0 archival/libarchive/lib.a(header_verbose_list.o)
 .bss           0x00000000        0x0 archival/libarchive/lib.a(header_verbose_list.o)
 .note.GNU-stack
                0x00000000        0x0 archival/libarchive/lib.a(header_verbose_list.o)
 .text          0x00000000        0x0 archival/libarchive/lib.a(init_handle.o)
 .data          0x00000000        0x0 archival/libarchive/lib.a(init_handle.o)
 .bss           0x00000000        0x0 archival/libarchive/lib.a(init_handle.o)
 .note.GNU-stack
                0x00000000        0x0 archival/libarchive/lib.a(init_handle.o)
 .text          0x00000000        0x0 archival/libarchive/lib.a(open_transformer.o)
 .data          0x00000000        0x0 archival/libarchive/lib.a(open_transformer.o)
 .bss           0x00000000        0x0 archival/libarchive/lib.a(open_transformer.o)
 .text.xtransformer_write
                0x00000000       0x18 archival/libarchive/lib.a(open_transformer.o)
 .note.GNU-stack
                0x00000000        0x0 archival/libarchive/lib.a(open_transformer.o)
 .text          0x00000000        0x0 archival/libarchive/lib.a(seek_by_jump.o)
 .data          0x00000000        0x0 archival/libarchive/lib.a(seek_by_jump.o)
 .bss           0x00000000        0x0 archival/libarchive/lib.a(seek_by_jump.o)
 .note.GNU-stack
                0x00000000        0x0 archival/libarchive/lib.a(seek_by_jump.o)
 .text          0x00000000        0x0 archival/libarchive/lib.a(seek_by_read.o)
 .data          0x00000000        0x0 archival/libarchive/lib.a(seek_by_read.o)
 .bss           0x00000000        0x0 archival/libarchive/lib.a(seek_by_read.o)
 .note.GNU-stack
                0x00000000        0x0 archival/libarchive/lib.a(seek_by_read.o)
 .text          0x00000000        0x0 archival/libarchive/lib.a(unsafe_prefix.o)
 .data          0x00000000        0x0 archival/libarchive/lib.a(unsafe_prefix.o)
 .bss           0x00000000        0x0 archival/libarchive/lib.a(unsafe_prefix.o)
 .note.GNU-stack
                0x00000000        0x0 archival/libarchive/lib.a(unsafe_prefix.o)
 .text          0x00000000        0x0 archival/libarchive/lib.a(data_align.o)
 .data          0x00000000        0x0 archival/libarchive/lib.a(data_align.o)
 .bss           0x00000000        0x0 archival/libarchive/lib.a(data_align.o)
 .note.GNU-stack
                0x00000000        0x0 archival/libarchive/lib.a(data_align.o)
 .text          0x00000000        0x0 archival/libarchive/lib.a(filter_accept_all.o)
 .data          0x00000000        0x0 archival/libarchive/lib.a(filter_accept_all.o)
 .bss           0x00000000        0x0 archival/libarchive/lib.a(filter_accept_all.o)
 .note.GNU-stack
                0x00000000        0x0 archival/libarchive/lib.a(filter_accept_all.o)
 .text          0x00000000        0x0 archival/libarchive/lib.a(header_skip.o)
 .data          0x00000000        0x0 archival/libarchive/lib.a(header_skip.o)
 .bss           0x00000000        0x0 archival/libarchive/lib.a(header_skip.o)
 .note.GNU-stack
                0x00000000        0x0 archival/libarchive/lib.a(header_skip.o)
 .text          0x00000000        0x0 console-tools/lib.a(clear.o)
 .data          0x00000000        0x0 console-tools/lib.a(clear.o)
 .bss           0x00000000        0x0 console-tools/lib.a(clear.o)
 .note.GNU-stack
                0x00000000        0x0 console-tools/lib.a(clear.o)
 .text          0x00000000        0x0 console-tools/lib.a(setconsole.o)
 .data          0x00000000        0x0 console-tools/lib.a(setconsole.o)
 .bss           0x00000000        0x0 console-tools/lib.a(setconsole.o)
 .note.GNU-stack
                0x00000000        0x0 console-tools/lib.a(setconsole.o)
 .text          0x00000000        0x0 coreutils/lib.a(basename.o)
 .data          0x00000000        0x0 coreutils/lib.a(basename.o)
 .bss           0x00000000        0x0 coreutils/lib.a(basename.o)
 .note.GNU-stack
                0x00000000        0x0 coreutils/lib.a(basename.o)
 .text          0x00000000        0x0 coreutils/lib.a(cat.o)
 .data          0x00000000        0x0 coreutils/lib.a(cat.o)
 .bss           0x00000000        0x0 coreutils/lib.a(cat.o)
 .note.GNU-stack
                0x00000000        0x0 coreutils/lib.a(cat.o)
 .text          0x00000000        0x0 coreutils/lib.a(chmod.o)
 .data          0x00000000        0x0 coreutils/lib.a(chmod.o)
 .bss           0x00000000        0x0 coreutils/lib.a(chmod.o)
 .note.GNU-stack
                0x00000000        0x0 coreutils/lib.a(chmod.o)
 .text          0x00000000        0x0 coreutils/lib.a(chown.o)
 .data          0x00000000        0x0 coreutils/lib.a(chown.o)
 .bss           0x00000000        0x0 coreutils/lib.a(chown.o)
 .note.GNU-stack
                0x00000000        0x0 coreutils/lib.a(chown.o)
 .text          0x00000000        0x0 coreutils/lib.a(cp.o)
 .data          0x00000000        0x0 coreutils/lib.a(cp.o)
 .bss           0x00000000        0x0 coreutils/lib.a(cp.o)
 .note.GNU-stack
                0x00000000        0x0 coreutils/lib.a(cp.o)
 .text          0x00000000        0x0 coreutils/lib.a(cut.o)
 .data          0x00000000        0x0 coreutils/lib.a(cut.o)
 .bss           0x00000000        0x0 coreutils/lib.a(cut.o)
 .note.GNU-stack
                0x00000000        0x0 coreutils/lib.a(cut.o)
 .text          0x00000000        0x0 coreutils/lib.a(date.o)
 .data          0x00000000        0x0 coreutils/lib.a(date.o)
 .bss           0x00000000        0x0 coreutils/lib.a(date.o)
 .note.GNU-stack
                0x00000000        0x0 coreutils/lib.a(date.o)
 .text          0x00000000        0x0 coreutils/lib.a(dd.o)
 .data          0x00000000        0x0 coreutils/lib.a(dd.o)
 .bss           0x00000000        0x0 coreutils/lib.a(dd.o)
 .note.GNU-stack
                0x00000000        0x0 coreutils/lib.a(dd.o)
 .text          0x00000000        0x0 coreutils/lib.a(df.o)
 .data          0x00000000        0x0 coreutils/lib.a(df.o)
 .bss           0x00000000        0x0 coreutils/lib.a(df.o)
 .note.GNU-stack
                0x00000000        0x0 coreutils/lib.a(df.o)
 .text          0x00000000        0x0 coreutils/lib.a(dirname.o)
 .data          0x00000000        0x0 coreutils/lib.a(dirname.o)
 .bss           0x00000000        0x0 coreutils/lib.a(dirname.o)
 .note.GNU-stack
                0x00000000        0x0 coreutils/lib.a(dirname.o)
 .text          0x00000000        0x0 coreutils/lib.a(du.o)
 .data          0x00000000        0x0 coreutils/lib.a(du.o)
 .bss           0x00000000        0x0 coreutils/lib.a(du.o)
 .note.GNU-stack
                0x00000000        0x0 coreutils/lib.a(du.o)
 .text          0x00000000        0x0 coreutils/lib.a(echo.o)
 .data          0x00000000        0x0 coreutils/lib.a(echo.o)
 .bss           0x00000000        0x0 coreutils/lib.a(echo.o)
 .note.GNU-stack
                0x00000000        0x0 coreutils/lib.a(echo.o)
 .text          0x00000000        0x0 coreutils/lib.a(env.o)
 .data          0x00000000        0x0 coreutils/lib.a(env.o)
 .bss           0x00000000        0x0 coreutils/lib.a(env.o)
 .note.GNU-stack
                0x00000000        0x0 coreutils/lib.a(env.o)
 .text          0x00000000        0x0 coreutils/lib.a(expr.o)
 .data          0x00000000        0x0 coreutils/lib.a(expr.o)
 .bss           0x00000000        0x0 coreutils/lib.a(expr.o)
 .note.GNU-stack
                0x00000000        0x0 coreutils/lib.a(expr.o)
 .text          0x00000000        0x0 coreutils/lib.a(fsync.o)
 .data          0x00000000        0x0 coreutils/lib.a(fsync.o)
 .bss           0x00000000        0x0 coreutils/lib.a(fsync.o)
 .note.GNU-stack
                0x00000000        0x0 coreutils/lib.a(fsync.o)
 .text          0x00000000        0x0 coreutils/lib.a(head.o)
 .data          0x00000000        0x0 coreutils/lib.a(head.o)
 .bss           0x00000000        0x0 coreutils/lib.a(head.o)
 .note.GNU-stack
                0x00000000        0x0 coreutils/lib.a(head.o)
 .text          0x00000000        0x0 coreutils/lib.a(ln.o)
 .data          0x00000000        0x0 coreutils/lib.a(ln.o)
 .bss           0x00000000        0x0 coreutils/lib.a(ln.o)
 .note.GNU-stack
                0x00000000        0x0 coreutils/lib.a(ln.o)
 .text          0x00000000        0x0 coreutils/lib.a(ls.o)
 .data          0x00000000        0x0 coreutils/lib.a(ls.o)
 .bss           0x00000000        0x0 coreutils/lib.a(ls.o)
 .note.GNU-stack
                0x00000000        0x0 coreutils/lib.a(ls.o)
 .text          0x00000000        0x0 coreutils/lib.a(md5_sha1_sum.o)
 .data          0x00000000        0x0 coreutils/lib.a(md5_sha1_sum.o)
 .bss           0x00000000        0x0 coreutils/lib.a(md5_sha1_sum.o)
 .note.GNU-stack
                0x00000000        0x0 coreutils/lib.a(md5_sha1_sum.o)
 .text          0x00000000        0x0 coreutils/lib.a(mkdir.o)
 .data          0x00000000        0x0 coreutils/lib.a(mkdir.o)
 .bss           0x00000000        0x0 coreutils/lib.a(mkdir.o)
 .note.GNU-stack
                0x00000000        0x0 coreutils/lib.a(mkdir.o)
 .text          0x00000000        0x0 coreutils/lib.a(mknod.o)
 .data          0x00000000        0x0 coreutils/lib.a(mknod.o)
 .bss           0x00000000        0x0 coreutils/lib.a(mknod.o)
 .note.GNU-stack
                0x00000000        0x0 coreutils/lib.a(mknod.o)
 .text          0x00000000        0x0 coreutils/lib.a(mv.o)
 .data          0x00000000        0x0 coreutils/lib.a(mv.o)
 .bss           0x00000000        0x0 coreutils/lib.a(mv.o)
 .note.GNU-stack
                0x00000000        0x0 coreutils/lib.a(mv.o)
 .text          0x00000000        0x0 coreutils/lib.a(nice.o)
 .data          0x00000000        0x0 coreutils/lib.a(nice.o)
 .bss           0x00000000        0x0 coreutils/lib.a(nice.o)
 .note.GNU-stack
                0x00000000        0x0 coreutils/lib.a(nice.o)
 .text          0x00000000        0x0 coreutils/lib.a(nohup.o)
 .data          0x00000000        0x0 coreutils/lib.a(nohup.o)
 .bss           0x00000000        0x0 coreutils/lib.a(nohup.o)
 .note.GNU-stack
                0x00000000        0x0 coreutils/lib.a(nohup.o)
 .text          0x00000000        0x0 coreutils/lib.a(printf.o)
 .data          0x00000000        0x0 coreutils/lib.a(printf.o)
 .bss           0x00000000        0x0 coreutils/lib.a(printf.o)
 .note.GNU-stack
                0x00000000        0x0 coreutils/lib.a(printf.o)
 .text          0x00000000        0x0 coreutils/lib.a(pwd.o)
 .data          0x00000000        0x0 coreutils/lib.a(pwd.o)
 .bss           0x00000000        0x0 coreutils/lib.a(pwd.o)
 .note.GNU-stack
                0x00000000        0x0 coreutils/lib.a(pwd.o)
 .text          0x00000000        0x0 coreutils/lib.a(readlink.o)
 .data          0x00000000        0x0 coreutils/lib.a(readlink.o)
 .bss           0x00000000        0x0 coreutils/lib.a(readlink.o)
 .note.GNU-stack
                0x00000000        0x0 coreutils/lib.a(readlink.o)
 .text          0x00000000        0x0 coreutils/lib.a(rm.o)
 .data          0x00000000        0x0 coreutils/lib.a(rm.o)
 .bss           0x00000000        0x0 coreutils/lib.a(rm.o)
 .note.GNU-stack
                0x00000000        0x0 coreutils/lib.a(rm.o)
 .text          0x00000000        0x0 coreutils/lib.a(rmdir.o)
 .data          0x00000000        0x0 coreutils/lib.a(rmdir.o)
 .bss           0x00000000        0x0 coreutils/lib.a(rmdir.o)
 .note.GNU-stack
                0x00000000        0x0 coreutils/lib.a(rmdir.o)
 .text          0x00000000        0x0 coreutils/lib.a(sleep.o)
 .data          0x00000000        0x0 coreutils/lib.a(sleep.o)
 .bss           0x00000000        0x0 coreutils/lib.a(sleep.o)
 .note.GNU-stack
                0x00000000        0x0 coreutils/lib.a(sleep.o)
 .text          0x00000000        0x0 coreutils/lib.a(sort.o)
 .data          0x00000000        0x0 coreutils/lib.a(sort.o)
 .bss           0x00000000        0x0 coreutils/lib.a(sort.o)
 .note.GNU-stack
                0x00000000        0x0 coreutils/lib.a(sort.o)
 .text          0x00000000        0x0 coreutils/lib.a(sync.o)
 .data          0x00000000        0x0 coreutils/lib.a(sync.o)
 .bss           0x00000000        0x0 coreutils/lib.a(sync.o)
 .note.GNU-stack
                0x00000000        0x0 coreutils/lib.a(sync.o)
 .text          0x00000000        0x0 coreutils/lib.a(tail.o)
 .data          0x00000000        0x0 coreutils/lib.a(tail.o)
 .bss           0x00000000        0x0 coreutils/lib.a(tail.o)
 .note.GNU-stack
                0x00000000        0x0 coreutils/lib.a(tail.o)
 .text          0x00000000        0x0 coreutils/lib.a(test.o)
 .data          0x00000000        0x0 coreutils/lib.a(test.o)
 .bss           0x00000000        0x0 coreutils/lib.a(test.o)
 .note.GNU-stack
                0x00000000        0x0 coreutils/lib.a(test.o)
 .text          0x00000000        0x0 coreutils/lib.a(test_ptr_hack.o)
 .data          0x00000000        0x0 coreutils/lib.a(test_ptr_hack.o)
 .bss           0x00000000        0x0 coreutils/lib.a(test_ptr_hack.o)
 .note.GNU-stack
                0x00000000        0x0 coreutils/lib.a(test_ptr_hack.o)
 .text          0x00000000        0x0 coreutils/lib.a(touch.o)
 .data          0x00000000        0x0 coreutils/lib.a(touch.o)
 .bss           0x00000000        0x0 coreutils/lib.a(touch.o)
 .note.GNU-stack
                0x00000000        0x0 coreutils/lib.a(touch.o)
 .text          0x00000000        0x0 coreutils/lib.a(tr.o)
 .data          0x00000000        0x0 coreutils/lib.a(tr.o)
 .bss           0x00000000        0x0 coreutils/lib.a(tr.o)
 .note.GNU-stack
                0x00000000        0x0 coreutils/lib.a(tr.o)
 .text          0x00000000        0x0 coreutils/lib.a(true.o)
 .data          0x00000000        0x0 coreutils/lib.a(true.o)
 .bss           0x00000000        0x0 coreutils/lib.a(true.o)
 .note.GNU-stack
                0x00000000        0x0 coreutils/lib.a(true.o)
 .text          0x00000000        0x0 coreutils/lib.a(uname.o)
 .data          0x00000000        0x0 coreutils/lib.a(uname.o)
 .bss           0x00000000        0x0 coreutils/lib.a(uname.o)
 .note.GNU-stack
                0x00000000        0x0 coreutils/lib.a(uname.o)
 .text          0x00000000        0x0 coreutils/lib.a(uniq.o)
 .data          0x00000000        0x0 coreutils/lib.a(uniq.o)
 .bss           0x00000000        0x0 coreutils/lib.a(uniq.o)
 .note.GNU-stack
                0x00000000        0x0 coreutils/lib.a(uniq.o)
 .text          0x00000000        0x0 coreutils/lib.a(usleep.o)
 .data          0x00000000        0x0 coreutils/lib.a(usleep.o)
 .bss           0x00000000        0x0 coreutils/lib.a(usleep.o)
 .note.GNU-stack
                0x00000000        0x0 coreutils/lib.a(usleep.o)
 .text          0x00000000        0x0 coreutils/lib.a(uudecode.o)
 .data          0x00000000        0x0 coreutils/lib.a(uudecode.o)
 .bss           0x00000000        0x0 coreutils/lib.a(uudecode.o)
 .note.GNU-stack
                0x00000000        0x0 coreutils/lib.a(uudecode.o)
 .text          0x00000000        0x0 coreutils/lib.a(wc.o)
 .data          0x00000000        0x0 coreutils/lib.a(wc.o)
 .bss           0x00000000        0x0 coreutils/lib.a(wc.o)
 .note.GNU-stack
                0x00000000        0x0 coreutils/lib.a(wc.o)
 .text          0x00000000        0x0 coreutils/libcoreutils/lib.a(cp_mv_stat.o)
 .data          0x00000000        0x0 coreutils/libcoreutils/lib.a(cp_mv_stat.o)
 .bss           0x00000000        0x0 coreutils/libcoreutils/lib.a(cp_mv_stat.o)
 .note.GNU-stack
                0x00000000        0x0 coreutils/libcoreutils/lib.a(cp_mv_stat.o)
 .text          0x00000000        0x0 coreutils/libcoreutils/lib.a(getopt_mk_fifo_nod.o)
 .data          0x00000000        0x0 coreutils/libcoreutils/lib.a(getopt_mk_fifo_nod.o)
 .bss           0x00000000        0x0 coreutils/libcoreutils/lib.a(getopt_mk_fifo_nod.o)
 .note.GNU-stack
                0x00000000        0x0 coreutils/libcoreutils/lib.a(getopt_mk_fifo_nod.o)
 .text          0x00000000        0x0 debianutils/lib.a(start_stop_daemon.o)
 .data          0x00000000        0x0 debianutils/lib.a(start_stop_daemon.o)
 .bss           0x00000000        0x0 debianutils/lib.a(start_stop_daemon.o)
 .note.GNU-stack
                0x00000000        0x0 debianutils/lib.a(start_stop_daemon.o)
 .text          0x00000000        0x0 debianutils/lib.a(which.o)
 .data          0x00000000        0x0 debianutils/lib.a(which.o)
 .bss           0x00000000        0x0 debianutils/lib.a(which.o)
 .note.GNU-stack
                0x00000000        0x0 debianutils/lib.a(which.o)
 .text          0x00000000        0x0 e2fsprogs/lib.a(fsck.o)
 .data          0x00000000        0x0 e2fsprogs/lib.a(fsck.o)
 .bss           0x00000000        0x0 e2fsprogs/lib.a(fsck.o)
 .note.GNU-stack
                0x00000000        0x0 e2fsprogs/lib.a(fsck.o)
 .text          0x00000000        0x0 editors/lib.a(awk.o)
 .data          0x00000000        0x0 editors/lib.a(awk.o)
 .bss           0x00000000        0x0 editors/lib.a(awk.o)
 .note.GNU-stack
                0x00000000        0x0 editors/lib.a(awk.o)
 .text          0x00000000        0x0 editors/lib.a(cmp.o)
 .data          0x00000000        0x0 editors/lib.a(cmp.o)
 .bss           0x00000000        0x0 editors/lib.a(cmp.o)
 .note.GNU-stack
                0x00000000        0x0 editors/lib.a(cmp.o)
 .text          0x00000000        0x0 editors/lib.a(sed.o)
 .data          0x00000000        0x0 editors/lib.a(sed.o)
 .bss           0x00000000        0x0 editors/lib.a(sed.o)
 .note.GNU-stack
                0x00000000        0x0 editors/lib.a(sed.o)
 .text          0x00000000        0x0 editors/lib.a(vi.o)
 .data          0x00000000        0x0 editors/lib.a(vi.o)
 .bss           0x00000000        0x0 editors/lib.a(vi.o)
 .note.GNU-stack
                0x00000000        0x0 editors/lib.a(vi.o)
 .text          0x00000000        0x0 findutils/lib.a(find.o)
 .data          0x00000000        0x0 findutils/lib.a(find.o)
 .bss           0x00000000        0x0 findutils/lib.a(find.o)
 .note.GNU-stack
                0x00000000        0x0 findutils/lib.a(find.o)
 .text          0x00000000        0x0 findutils/lib.a(grep.o)
 .data          0x00000000        0x0 findutils/lib.a(grep.o)
 .bss           0x00000000        0x0 findutils/lib.a(grep.o)
 .note.GNU-stack
                0x00000000        0x0 findutils/lib.a(grep.o)
 .text          0x00000000        0x0 findutils/lib.a(xargs.o)
 .data          0x00000000        0x0 findutils/lib.a(xargs.o)
 .bss           0x00000000        0x0 findutils/lib.a(xargs.o)
 .note.GNU-stack
                0x00000000        0x0 findutils/lib.a(xargs.o)
 .text          0x00000000        0x0 libbb/lib.a(ask_confirmation.o)
 .data          0x00000000        0x0 libbb/lib.a(ask_confirmation.o)
 .bss           0x00000000        0x0 libbb/lib.a(ask_confirmation.o)
 .note.GNU-stack
                0x00000000        0x0 libbb/lib.a(ask_confirmation.o)
 .text          0x00000000        0x0 libbb/lib.a(auto_string.o)
 .data          0x00000000        0x0 libbb/lib.a(auto_string.o)
 .bss           0x00000000        0x0 libbb/lib.a(auto_string.o)
 .note.GNU-stack
                0x00000000        0x0 libbb/lib.a(auto_string.o)
 .text          0x00000000        0x0 libbb/lib.a(bb_do_delay.o)
 .data          0x00000000        0x0 libbb/lib.a(bb_do_delay.o)
 .bss           0x00000000        0x0 libbb/lib.a(bb_do_delay.o)
 .note.GNU-stack
                0x00000000        0x0 libbb/lib.a(bb_do_delay.o)
 .text          0x00000000        0x0 libbb/lib.a(bb_pwd.o)
 .data          0x00000000        0x0 libbb/lib.a(bb_pwd.o)
 .bss           0x00000000        0x0 libbb/lib.a(bb_pwd.o)
 .text.xgetgrgid
                0x00000000       0x34 libbb/lib.a(bb_pwd.o)
 .text.xuid2uname
                0x00000000       0x10 libbb/lib.a(bb_pwd.o)
 .text.xgid2group
                0x00000000       0x10 libbb/lib.a(bb_pwd.o)
 .note.GNU-stack
                0x00000000        0x0 libbb/lib.a(bb_pwd.o)
 .text          0x00000000        0x0 libbb/lib.a(change_identity.o)
 .data          0x00000000        0x0 libbb/lib.a(change_identity.o)
 .bss           0x00000000        0x0 libbb/lib.a(change_identity.o)
 .note.GNU-stack
                0x00000000        0x0 libbb/lib.a(change_identity.o)
 .text          0x00000000        0x0 libbb/lib.a(chomp.o)
 .data          0x00000000        0x0 libbb/lib.a(chomp.o)
 .bss           0x00000000        0x0 libbb/lib.a(chomp.o)
 .note.GNU-stack
                0x00000000        0x0 libbb/lib.a(chomp.o)
 .text          0x00000000        0x0 libbb/lib.a(common_bufsiz.o)
 .data          0x00000000        0x0 libbb/lib.a(common_bufsiz.o)
 .bss           0x00000000        0x0 libbb/lib.a(common_bufsiz.o)
 .note.GNU-stack
                0x00000000        0x0 libbb/lib.a(common_bufsiz.o)
 .text          0x00000000        0x0 libbb/lib.a(concat_path_file.o)
 .data          0x00000000        0x0 libbb/lib.a(concat_path_file.o)
 .bss           0x00000000        0x0 libbb/lib.a(concat_path_file.o)
 .note.GNU-stack
                0x00000000        0x0 libbb/lib.a(concat_path_file.o)
 .text          0x00000000        0x0 libbb/lib.a(concat_subpath_file.o)
 .data          0x00000000        0x0 libbb/lib.a(concat_subpath_file.o)
 .bss           0x00000000        0x0 libbb/lib.a(concat_subpath_file.o)
 .note.GNU-stack
                0x00000000        0x0 libbb/lib.a(concat_subpath_file.o)
 .text          0x00000000        0x0 libbb/lib.a(copy_file.o)
 .data          0x00000000        0x0 libbb/lib.a(copy_file.o)
 .bss           0x00000000        0x0 libbb/lib.a(copy_file.o)
 .note.GNU-stack
                0x00000000        0x0 libbb/lib.a(copy_file.o)
 .text          0x00000000        0x0 libbb/lib.a(correct_password.o)
 .data          0x00000000        0x0 libbb/lib.a(correct_password.o)
 .bss           0x00000000        0x0 libbb/lib.a(correct_password.o)
 .note.GNU-stack
                0x00000000        0x0 libbb/lib.a(correct_password.o)
 .text          0x00000000        0x0 libbb/lib.a(crc32.o)
 .data          0x00000000        0x0 libbb/lib.a(crc32.o)
 .bss           0x00000000        0x0 libbb/lib.a(crc32.o)
 .text.crc32_block_endian1
                0x00000000       0x24 libbb/lib.a(crc32.o)
 .note.GNU-stack
                0x00000000        0x0 libbb/lib.a(crc32.o)
 .text          0x00000000        0x0 libbb/lib.a(device_open.o)
 .data          0x00000000        0x0 libbb/lib.a(device_open.o)
 .bss           0x00000000        0x0 libbb/lib.a(device_open.o)
 .note.GNU-stack
                0x00000000        0x0 libbb/lib.a(device_open.o)
 .text          0x00000000        0x0 libbb/lib.a(endofname.o)
 .data          0x00000000        0x0 libbb/lib.a(endofname.o)
 .bss           0x00000000        0x0 libbb/lib.a(endofname.o)
 .note.GNU-stack
                0x00000000        0x0 libbb/lib.a(endofname.o)
 .text          0x00000000        0x0 libbb/lib.a(executable.o)
 .data          0x00000000        0x0 libbb/lib.a(executable.o)
 .bss           0x00000000        0x0 libbb/lib.a(executable.o)
 .text.executable_exists
                0x00000000       0x5c libbb/lib.a(executable.o)
 .text.exec_prog_or_SHELL
                0x00000000       0x40 libbb/lib.a(executable.o)
 .note.GNU-stack
                0x00000000        0x0 libbb/lib.a(executable.o)
 .text          0x00000000        0x0 libbb/lib.a(fclose_nonstdin.o)
 .data          0x00000000        0x0 libbb/lib.a(fclose_nonstdin.o)
 .bss           0x00000000        0x0 libbb/lib.a(fclose_nonstdin.o)
 .note.GNU-stack
                0x00000000        0x0 libbb/lib.a(fclose_nonstdin.o)
 .text          0x00000000        0x0 libbb/lib.a(fflush_stdout_and_exit.o)
 .data          0x00000000        0x0 libbb/lib.a(fflush_stdout_and_exit.o)
 .bss           0x00000000        0x0 libbb/lib.a(fflush_stdout_and_exit.o)
 .note.GNU-stack
                0x00000000        0x0 libbb/lib.a(fflush_stdout_and_exit.o)
 .text          0x00000000        0x0 libbb/lib.a(fgets_str.o)
 .data          0x00000000        0x0 libbb/lib.a(fgets_str.o)
 .bss           0x00000000        0x0 libbb/lib.a(fgets_str.o)
 .text.xmalloc_fgets_str_len
                0x00000000       0x24 libbb/lib.a(fgets_str.o)
 .text.xmalloc_fgetline_str
                0x00000000       0x20 libbb/lib.a(fgets_str.o)
 .note.GNU-stack
                0x00000000        0x0 libbb/lib.a(fgets_str.o)
 .text          0x00000000        0x0 libbb/lib.a(find_mount_point.o)
 .data          0x00000000        0x0 libbb/lib.a(find_mount_point.o)
 .bss           0x00000000        0x0 libbb/lib.a(find_mount_point.o)
 .note.GNU-stack
                0x00000000        0x0 libbb/lib.a(find_mount_point.o)
 .text          0x00000000        0x0 libbb/lib.a(find_pid_by_name.o)
 .data          0x00000000        0x0 libbb/lib.a(find_pid_by_name.o)
 .bss           0x00000000        0x0 libbb/lib.a(find_pid_by_name.o)
 .note.GNU-stack
                0x00000000        0x0 libbb/lib.a(find_pid_by_name.o)
 .text          0x00000000        0x0 libbb/lib.a(get_line_from_file.o)
 .data          0x00000000        0x0 libbb/lib.a(get_line_from_file.o)
 .bss           0x00000000        0x0 libbb/lib.a(get_line_from_file.o)
 .note.GNU-stack
                0x00000000        0x0 libbb/lib.a(get_line_from_file.o)
 .text          0x00000000        0x0 libbb/lib.a(get_shell_name.o)
 .data          0x00000000        0x0 libbb/lib.a(get_shell_name.o)
 .bss           0x00000000        0x0 libbb/lib.a(get_shell_name.o)
 .note.GNU-stack
                0x00000000        0x0 libbb/lib.a(get_shell_name.o)
 .text          0x00000000        0x0 libbb/lib.a(get_volsize.o)
 .data          0x00000000        0x0 libbb/lib.a(get_volsize.o)
 .bss           0x00000000        0x0 libbb/lib.a(get_volsize.o)
 .note.GNU-stack
                0x00000000        0x0 libbb/lib.a(get_volsize.o)
 .text          0x00000000        0x0 libbb/lib.a(getopt32.o)
 .data          0x00000000        0x0 libbb/lib.a(getopt32.o)
 .bss           0x00000000        0x0 libbb/lib.a(getopt32.o)
 .note.GNU-stack
                0x00000000        0x0 libbb/lib.a(getopt32.o)
 .text          0x00000000        0x0 libbb/lib.a(getpty.o)
 .data          0x00000000        0x0 libbb/lib.a(getpty.o)
 .bss           0x00000000        0x0 libbb/lib.a(getpty.o)
 .note.GNU-stack
                0x00000000        0x0 libbb/lib.a(getpty.o)
 .text          0x00000000        0x0 libbb/lib.a(hash_md5_sha.o)
 .data          0x00000000        0x0 libbb/lib.a(hash_md5_sha.o)
 .bss           0x00000000        0x0 libbb/lib.a(hash_md5_sha.o)
 .text.sha3_process_block72
                0x00000000      0x2cc libbb/lib.a(hash_md5_sha.o)
 .text.sha512_process_block128
                0x00000000      0x42c libbb/lib.a(hash_md5_sha.o)
 .text.sha1_process_block64
                0x00000000      0x1d4 libbb/lib.a(hash_md5_sha.o)
 .text.sha256_process_block64
                0x00000000      0x1f0 libbb/lib.a(hash_md5_sha.o)
 .text.sha1_begin
                0x00000000       0x68 libbb/lib.a(hash_md5_sha.o)
 .text.sha256_begin
                0x00000000       0x50 libbb/lib.a(hash_md5_sha.o)
 .text.sha512_begin
                0x00000000       0x54 libbb/lib.a(hash_md5_sha.o)
 .text.sha512_hash
                0x00000000       0x98 libbb/lib.a(hash_md5_sha.o)
 .text.sha1_end
                0x00000000       0x70 libbb/lib.a(hash_md5_sha.o)
 .text.sha512_end
                0x00000000       0xe8 libbb/lib.a(hash_md5_sha.o)
 .text.sha3_begin
                0x00000000        0xc libbb/lib.a(hash_md5_sha.o)
 .text.sha3_hash
                0x00000000       0x7c libbb/lib.a(hash_md5_sha.o)
 .text.sha3_end
                0x00000000       0x44 libbb/lib.a(hash_md5_sha.o)
 .rodata.rconsts.7206
                0x00000000       0x10 libbb/lib.a(hash_md5_sha.o)
 .rodata.PI_LANE.7345
                0x00000000       0x18 libbb/lib.a(hash_md5_sha.o)
 .rodata.IOTA_CONST.7341
                0x00000000       0x30 libbb/lib.a(hash_md5_sha.o)
 .rodata.sha_K  0x00000000      0x280 libbb/lib.a(hash_md5_sha.o)
 .rodata.init512_lo
                0x00000000       0x28 libbb/lib.a(hash_md5_sha.o)
 .rodata.ROT_CONST.7344
                0x00000000       0x18 libbb/lib.a(hash_md5_sha.o)
 .rodata.init256
                0x00000000       0x28 libbb/lib.a(hash_md5_sha.o)
 .note.GNU-stack
                0x00000000        0x0 libbb/lib.a(hash_md5_sha.o)
 .text          0x00000000        0x0 libbb/lib.a(herror_msg.o)
 .data          0x00000000        0x0 libbb/lib.a(herror_msg.o)
 .bss           0x00000000        0x0 libbb/lib.a(herror_msg.o)
 .text.bb_herror_msg
                0x00000000       0x38 libbb/lib.a(herror_msg.o)
 .note.GNU-stack
                0x00000000        0x0 libbb/lib.a(herror_msg.o)
 .text          0x00000000        0x0 libbb/lib.a(human_readable.o)
 .data          0x00000000        0x0 libbb/lib.a(human_readable.o)
 .bss           0x00000000        0x0 libbb/lib.a(human_readable.o)
 .text.smart_ulltoa4
                0x00000000      0x1b0 libbb/lib.a(human_readable.o)
 .note.GNU-stack
                0x00000000        0x0 libbb/lib.a(human_readable.o)
 .text          0x00000000        0x0 libbb/lib.a(in_ether.o)
 .data          0x00000000        0x0 libbb/lib.a(in_ether.o)
 .bss           0x00000000        0x0 libbb/lib.a(in_ether.o)
 .note.GNU-stack
                0x00000000        0x0 libbb/lib.a(in_ether.o)
 .text          0x00000000        0x0 libbb/lib.a(inet_cksum.o)
 .data          0x00000000        0x0 libbb/lib.a(inet_cksum.o)
 .bss           0x00000000        0x0 libbb/lib.a(inet_cksum.o)
 .note.GNU-stack
                0x00000000        0x0 libbb/lib.a(inet_cksum.o)
 .text          0x00000000        0x0 libbb/lib.a(inet_common.o)
 .data          0x00000000        0x0 libbb/lib.a(inet_common.o)
 .bss           0x00000000        0x0 libbb/lib.a(inet_common.o)
 .note.GNU-stack
                0x00000000        0x0 libbb/lib.a(inet_common.o)
 .text          0x00000000        0x0 libbb/lib.a(inode_hash.o)
 .data          0x00000000        0x0 libbb/lib.a(inode_hash.o)
 .bss           0x00000000        0x0 libbb/lib.a(inode_hash.o)
 .note.GNU-stack
                0x00000000        0x0 libbb/lib.a(inode_hash.o)
 .text          0x00000000        0x0 libbb/lib.a(isdirectory.o)
 .data          0x00000000        0x0 libbb/lib.a(isdirectory.o)
 .bss           0x00000000        0x0 libbb/lib.a(isdirectory.o)
 .note.GNU-stack
                0x00000000        0x0 libbb/lib.a(isdirectory.o)
 .text          0x00000000        0x0 libbb/lib.a(lineedit.o)
 .data          0x00000000        0x0 libbb/lib.a(lineedit.o)
 .bss           0x00000000        0x0 libbb/lib.a(lineedit.o)
 .text.size_from_HISTFILESIZE
                0x00000000       0x30 libbb/lib.a(lineedit.o)
 .note.GNU-stack
                0x00000000        0x0 libbb/lib.a(lineedit.o)
 .text          0x00000000        0x0 libbb/lib.a(lineedit_ptr_hack.o)
 .data          0x00000000        0x0 libbb/lib.a(lineedit_ptr_hack.o)
 .bss           0x00000000        0x0 libbb/lib.a(lineedit_ptr_hack.o)
 .note.GNU-stack
                0x00000000        0x0 libbb/lib.a(lineedit_ptr_hack.o)
 .text          0x00000000        0x0 libbb/lib.a(llist.o)
 .data          0x00000000        0x0 libbb/lib.a(llist.o)
 .bss           0x00000000        0x0 libbb/lib.a(llist.o)
 .text.llist_unlink
                0x00000000       0x34 libbb/lib.a(llist.o)
 .text.llist_free
                0x00000000       0x38 libbb/lib.a(llist.o)
 .text.llist_find_str
                0x00000000       0x38 libbb/lib.a(llist.o)
 .note.GNU-stack
                0x00000000        0x0 libbb/lib.a(llist.o)
 .text          0x00000000        0x0 libbb/lib.a(logenv.o)
 .data          0x00000000        0x0 libbb/lib.a(logenv.o)
 .bss           0x00000000        0x0 libbb/lib.a(logenv.o)
 .note.GNU-stack
                0x00000000        0x0 libbb/lib.a(logenv.o)
 .text          0x00000000        0x0 libbb/lib.a(login.o)
 .data          0x00000000        0x0 libbb/lib.a(login.o)
 .bss           0x00000000        0x0 libbb/lib.a(login.o)
 .note.GNU-stack
                0x00000000        0x0 libbb/lib.a(login.o)
 .text          0x00000000        0x0 libbb/lib.a(loop.o)
 .data          0x00000000        0x0 libbb/lib.a(loop.o)
 .bss           0x00000000        0x0 libbb/lib.a(loop.o)
 .text.query_loop
                0x00000000       0x78 libbb/lib.a(loop.o)
 .note.GNU-stack
                0x00000000        0x0 libbb/lib.a(loop.o)
 .text          0x00000000        0x0 libbb/lib.a(make_directory.o)
 .data          0x00000000        0x0 libbb/lib.a(make_directory.o)
 .bss           0x00000000        0x0 libbb/lib.a(make_directory.o)
 .note.GNU-stack
                0x00000000        0x0 libbb/lib.a(make_directory.o)
 .text          0x00000000        0x0 libbb/lib.a(makedev.o)
 .data          0x00000000        0x0 libbb/lib.a(makedev.o)
 .bss           0x00000000        0x0 libbb/lib.a(makedev.o)
 .note.GNU-stack
                0x00000000        0x0 libbb/lib.a(makedev.o)
 .text          0x00000000        0x0 libbb/lib.a(match_fstype.o)
 .data          0x00000000        0x0 libbb/lib.a(match_fstype.o)
 .bss           0x00000000        0x0 libbb/lib.a(match_fstype.o)
 .note.GNU-stack
                0x00000000        0x0 libbb/lib.a(match_fstype.o)
 .text          0x00000000        0x0 libbb/lib.a(mode_string.o)
 .data          0x00000000        0x0 libbb/lib.a(mode_string.o)
 .bss           0x00000000        0x0 libbb/lib.a(mode_string.o)
 .note.GNU-stack
                0x00000000        0x0 libbb/lib.a(mode_string.o)
 .text          0x00000000        0x0 libbb/lib.a(nuke_str.o)
 .data          0x00000000        0x0 libbb/lib.a(nuke_str.o)
 .bss           0x00000000        0x0 libbb/lib.a(nuke_str.o)
 .note.GNU-stack
                0x00000000        0x0 libbb/lib.a(nuke_str.o)
 .text          0x00000000        0x0 libbb/lib.a(parse_config.o)
 .data          0x00000000        0x0 libbb/lib.a(parse_config.o)
 .bss           0x00000000        0x0 libbb/lib.a(parse_config.o)
 .note.GNU-stack
                0x00000000        0x0 libbb/lib.a(parse_config.o)
 .text          0x00000000        0x0 libbb/lib.a(parse_mode.o)
 .data          0x00000000        0x0 libbb/lib.a(parse_mode.o)
 .bss           0x00000000        0x0 libbb/lib.a(parse_mode.o)
 .note.GNU-stack
                0x00000000        0x0 libbb/lib.a(parse_mode.o)
 .text          0x00000000        0x0 libbb/lib.a(perror_nomsg_and_die.o)
 .data          0x00000000        0x0 libbb/lib.a(perror_nomsg_and_die.o)
 .bss           0x00000000        0x0 libbb/lib.a(perror_nomsg_and_die.o)
 .note.GNU-stack
                0x00000000        0x0 libbb/lib.a(perror_nomsg_and_die.o)
 .text          0x00000000        0x0 libbb/lib.a(pidfile.o)
 .data          0x00000000        0x0 libbb/lib.a(pidfile.o)
 .bss           0x00000000        0x0 libbb/lib.a(pidfile.o)
 .note.GNU-stack
                0x00000000        0x0 libbb/lib.a(pidfile.o)
 .text          0x00000000        0x0 libbb/lib.a(print_flags.o)
 .data          0x00000000        0x0 libbb/lib.a(print_flags.o)
 .bss           0x00000000        0x0 libbb/lib.a(print_flags.o)
 .text.print_flags
                0x00000000       0x18 libbb/lib.a(print_flags.o)
 .note.GNU-stack
                0x00000000        0x0 libbb/lib.a(print_flags.o)
 .text          0x00000000        0x0 libbb/lib.a(printable.o)
 .data          0x00000000        0x0 libbb/lib.a(printable.o)
 .bss           0x00000000        0x0 libbb/lib.a(printable.o)
 .text.visible  0x00000000       0x74 libbb/lib.a(printable.o)
 .note.GNU-stack
                0x00000000        0x0 libbb/lib.a(printable.o)
 .text          0x00000000        0x0 libbb/lib.a(printable_string.o)
 .data          0x00000000        0x0 libbb/lib.a(printable_string.o)
 .bss           0x00000000        0x0 libbb/lib.a(printable_string.o)
 .note.GNU-stack
                0x00000000        0x0 libbb/lib.a(printable_string.o)
 .text          0x00000000        0x0 libbb/lib.a(process_escape_sequence.o)
 .data          0x00000000        0x0 libbb/lib.a(process_escape_sequence.o)
 .bss           0x00000000        0x0 libbb/lib.a(process_escape_sequence.o)
 .text.strcpy_and_process_escape_sequences
                0x00000000       0x48 libbb/lib.a(process_escape_sequence.o)
 .note.GNU-stack
                0x00000000        0x0 libbb/lib.a(process_escape_sequence.o)
 .text          0x00000000        0x0 libbb/lib.a(procps.o)
 .data          0x00000000        0x0 libbb/lib.a(procps.o)
 .bss           0x00000000        0x0 libbb/lib.a(procps.o)
 .note.GNU-stack
                0x00000000        0x0 libbb/lib.a(procps.o)
 .text          0x00000000        0x0 libbb/lib.a(pw_encrypt.o)
 .data          0x00000000        0x0 libbb/lib.a(pw_encrypt.o)
 .bss           0x00000000        0x0 libbb/lib.a(pw_encrypt.o)
 .note.GNU-stack
                0x00000000        0x0 libbb/lib.a(pw_encrypt.o)
 .text          0x00000000        0x0 libbb/lib.a(read_key.o)
 .data          0x00000000        0x0 libbb/lib.a(read_key.o)
 .bss           0x00000000        0x0 libbb/lib.a(read_key.o)
 .note.GNU-stack
                0x00000000        0x0 libbb/lib.a(read_key.o)
 .text          0x00000000        0x0 libbb/lib.a(read_printf.o)
 .data          0x00000000        0x0 libbb/lib.a(read_printf.o)
 .bss           0x00000000        0x0 libbb/lib.a(read_printf.o)
 .text.xmalloc_reads
                0x00000000       0xc0 libbb/lib.a(read_printf.o)
 .text.xread_char
                0x00000000       0x18 libbb/lib.a(read_printf.o)
 .text.xmalloc_xopen_read_close
                0x00000000       0x34 libbb/lib.a(read_printf.o)
 .note.GNU-stack
                0x00000000        0x0 libbb/lib.a(read_printf.o)
 .text          0x00000000        0x0 libbb/lib.a(recursive_action.o)
 .data          0x00000000        0x0 libbb/lib.a(recursive_action.o)
 .bss           0x00000000        0x0 libbb/lib.a(recursive_action.o)
 .note.GNU-stack
                0x00000000        0x0 libbb/lib.a(recursive_action.o)
 .text          0x00000000        0x0 libbb/lib.a(remove_file.o)
 .data          0x00000000        0x0 libbb/lib.a(remove_file.o)
 .bss           0x00000000        0x0 libbb/lib.a(remove_file.o)
 .note.GNU-stack
                0x00000000        0x0 libbb/lib.a(remove_file.o)
 .text          0x00000000        0x0 libbb/lib.a(replace.o)
 .data          0x00000000        0x0 libbb/lib.a(replace.o)
 .bss           0x00000000        0x0 libbb/lib.a(replace.o)
 .note.GNU-stack
                0x00000000        0x0 libbb/lib.a(replace.o)
 .text          0x00000000        0x0 libbb/lib.a(run_shell.o)
 .data          0x00000000        0x0 libbb/lib.a(run_shell.o)
 .bss           0x00000000        0x0 libbb/lib.a(run_shell.o)
 .note.GNU-stack
                0x00000000        0x0 libbb/lib.a(run_shell.o)
 .text          0x00000000        0x0 libbb/lib.a(safe_gethostname.o)
 .data          0x00000000        0x0 libbb/lib.a(safe_gethostname.o)
 .bss           0x00000000        0x0 libbb/lib.a(safe_gethostname.o)
 .note.GNU-stack
                0x00000000        0x0 libbb/lib.a(safe_gethostname.o)
 .text          0x00000000        0x0 libbb/lib.a(safe_poll.o)
 .data          0x00000000        0x0 libbb/lib.a(safe_poll.o)
 .bss           0x00000000        0x0 libbb/lib.a(safe_poll.o)
 .note.GNU-stack
                0x00000000        0x0 libbb/lib.a(safe_poll.o)
 .text          0x00000000        0x0 libbb/lib.a(safe_strncpy.o)
 .data          0x00000000        0x0 libbb/lib.a(safe_strncpy.o)
 .bss           0x00000000        0x0 libbb/lib.a(safe_strncpy.o)
 .note.GNU-stack
                0x00000000        0x0 libbb/lib.a(safe_strncpy.o)
 .text          0x00000000        0x0 libbb/lib.a(setup_environment.o)
 .data          0x00000000        0x0 libbb/lib.a(setup_environment.o)
 .bss           0x00000000        0x0 libbb/lib.a(setup_environment.o)
 .note.GNU-stack
                0x00000000        0x0 libbb/lib.a(setup_environment.o)
 .text          0x00000000        0x0 libbb/lib.a(simplify_path.o)
 .data          0x00000000        0x0 libbb/lib.a(simplify_path.o)
 .bss           0x00000000        0x0 libbb/lib.a(simplify_path.o)
 .note.GNU-stack
                0x00000000        0x0 libbb/lib.a(simplify_path.o)
 .text          0x00000000        0x0 libbb/lib.a(single_argv.o)
 .data          0x00000000        0x0 libbb/lib.a(single_argv.o)
 .bss           0x00000000        0x0 libbb/lib.a(single_argv.o)
 .note.GNU-stack
                0x00000000        0x0 libbb/lib.a(single_argv.o)
 .text          0x00000000        0x0 libbb/lib.a(skip_whitespace.o)
 .data          0x00000000        0x0 libbb/lib.a(skip_whitespace.o)
 .bss           0x00000000        0x0 libbb/lib.a(skip_whitespace.o)
 .note.GNU-stack
                0x00000000        0x0 libbb/lib.a(skip_whitespace.o)
 .text          0x00000000        0x0 libbb/lib.a(sysconf.o)
 .data          0x00000000        0x0 libbb/lib.a(sysconf.o)
 .bss           0x00000000        0x0 libbb/lib.a(sysconf.o)
 .note.GNU-stack
                0x00000000        0x0 libbb/lib.a(sysconf.o)
 .text          0x00000000        0x0 libbb/lib.a(u_signal_names.o)
 .data          0x00000000        0x0 libbb/lib.a(u_signal_names.o)
 .bss           0x00000000        0x0 libbb/lib.a(u_signal_names.o)
 .note.GNU-stack
                0x00000000        0x0 libbb/lib.a(u_signal_names.o)
 .text          0x00000000        0x0 libbb/lib.a(udp_io.o)
 .data          0x00000000        0x0 libbb/lib.a(udp_io.o)
 .bss           0x00000000        0x0 libbb/lib.a(udp_io.o)
 .text.send_to_from
                0x00000000      0x118 libbb/lib.a(udp_io.o)
 .note.GNU-stack
                0x00000000        0x0 libbb/lib.a(udp_io.o)
 .text          0x00000000        0x0 libbb/lib.a(unicode.o)
 .data          0x00000000        0x0 libbb/lib.a(unicode.o)
 .bss           0x00000000        0x0 libbb/lib.a(unicode.o)
 .text.bb_iswspace
                0x00000000       0x2c libbb/lib.a(unicode.o)
 .text.bb_iswalnum
                0x00000000       0x44 libbb/lib.a(unicode.o)
 .text.bb_iswpunct
                0x00000000       0x44 libbb/lib.a(unicode.o)
 .text.unicode_conv_to_printable_fixedwidth
                0x00000000       0x18 libbb/lib.a(unicode.o)
 .rodata.str1.1
                0x00000000       0x21 libbb/lib.a(unicode.o)
 .note.GNU-stack
                0x00000000        0x0 libbb/lib.a(unicode.o)
 .text          0x00000000        0x0 libbb/lib.a(update_passwd.o)
 .data          0x00000000        0x0 libbb/lib.a(update_passwd.o)
 .bss           0x00000000        0x0 libbb/lib.a(update_passwd.o)
 .note.GNU-stack
                0x00000000        0x0 libbb/lib.a(update_passwd.o)
 .text          0x00000000        0x0 libbb/lib.a(uuencode.o)
 .data          0x00000000        0x0 libbb/lib.a(uuencode.o)
 .bss           0x00000000        0x0 libbb/lib.a(uuencode.o)
 .rodata.bb_uuenc_tbl_std
                0x00000000       0x41 libbb/lib.a(uuencode.o)
 .note.GNU-stack
                0x00000000        0x0 libbb/lib.a(uuencode.o)
 .text          0x00000000        0x0 libbb/lib.a(vfork_daemon_rexec.o)
 .data          0x00000000        0x0 libbb/lib.a(vfork_daemon_rexec.o)
 .bss           0x00000000        0x0 libbb/lib.a(vfork_daemon_rexec.o)
 .text.xspawn   0x00000000       0x1c libbb/lib.a(vfork_daemon_rexec.o)
 .note.GNU-stack
                0x00000000        0x0 libbb/lib.a(vfork_daemon_rexec.o)
 .text          0x00000000        0x0 libbb/lib.a(wfopen.o)
 .data          0x00000000        0x0 libbb/lib.a(wfopen.o)
 .bss           0x00000000        0x0 libbb/lib.a(wfopen.o)
 .text.xfdopen_for_read
                0x00000000        0x8 libbb/lib.a(wfopen.o)
 .note.GNU-stack
                0x00000000        0x0 libbb/lib.a(wfopen.o)
 .text          0x00000000        0x0 libbb/lib.a(wfopen_input.o)
 .data          0x00000000        0x0 libbb/lib.a(wfopen_input.o)
 .bss           0x00000000        0x0 libbb/lib.a(wfopen_input.o)
 .text.xopen_stdin
                0x00000000       0x14 libbb/lib.a(wfopen_input.o)
 .note.GNU-stack
                0x00000000        0x0 libbb/lib.a(wfopen_input.o)
 .text          0x00000000        0x0 libbb/lib.a(xatonum.o)
 .data          0x00000000        0x0 libbb/lib.a(xatonum.o)
 .bss           0x00000000        0x0 libbb/lib.a(xatonum.o)
 .text.xstrtoull_range
                0x00000000       0x24 libbb/lib.a(xatonum.o)
 .text.xstrtoull_sfx
                0x00000000       0x2c libbb/lib.a(xatonum.o)
 .text.xstrtoull
                0x00000000       0x2c libbb/lib.a(xatonum.o)
 .text.xatoull_range_sfx
                0x00000000        0x8 libbb/lib.a(xatonum.o)
 .text.xatoull  0x00000000        0x8 libbb/lib.a(xatonum.o)
 .text.xstrtoll_range_sfx
                0x00000000      0x104 libbb/lib.a(xatonum.o)
 .text.xstrtoll_range
                0x00000000       0x24 libbb/lib.a(xatonum.o)
 .text.xstrtoll
                0x00000000       0x2c libbb/lib.a(xatonum.o)
 .text.xatoll_range_sfx
                0x00000000        0x8 libbb/lib.a(xatonum.o)
 .text.xatoll_range
                0x00000000       0x28 libbb/lib.a(xatonum.o)
 .text.xatoll_sfx
                0x00000000       0x2c libbb/lib.a(xatonum.o)
 .text.xatoll   0x00000000       0x30 libbb/lib.a(xatonum.o)
 .text.xstrtoul_sfx
                0x00000000       0x18 libbb/lib.a(xatonum.o)
 .text.xstrtol_range
                0x00000000       0x14 libbb/lib.a(xatonum.o)
 .text.xstrtol  0x00000000       0x1c libbb/lib.a(xatonum.o)
 .text.xatol_range_sfx
                0x00000000       0x24 libbb/lib.a(xatonum.o)
 .text.xatol_sfx
                0x00000000       0x1c libbb/lib.a(xatonum.o)
 .note.GNU-stack
                0x00000000        0x0 libbb/lib.a(xatonum.o)
 .text          0x00000000        0x0 libbb/lib.a(xconnect.o)
 .data          0x00000000        0x0 libbb/lib.a(xconnect.o)
 .bss           0x00000000        0x0 libbb/lib.a(xconnect.o)
 .text.bb_lookup_port
                0x00000000       0x8c libbb/lib.a(xconnect.o)
 .text.xsocket_stream
                0x00000000        0xc libbb/lib.a(xconnect.o)
 .text.create_and_bind_dgram_or_die
                0x00000000        0x8 libbb/lib.a(xconnect.o)
 .text.create_and_connect_stream_or_die
                0x00000000       0x48 libbb/lib.a(xconnect.o)
 .text.xconnect_stream
                0x00000000       0x34 libbb/lib.a(xconnect.o)
 .text.xmalloc_sockaddr2host
                0x00000000        0x8 libbb/lib.a(xconnect.o)
 .note.GNU-stack
                0x00000000        0x0 libbb/lib.a(xconnect.o)
 .text          0x00000000        0x0 libbb/lib.a(xgetcwd.o)
 .data          0x00000000        0x0 libbb/lib.a(xgetcwd.o)
 .bss           0x00000000        0x0 libbb/lib.a(xgetcwd.o)
 .note.GNU-stack
                0x00000000        0x0 libbb/lib.a(xgetcwd.o)
 .text          0x00000000        0x0 libbb/lib.a(xreadlink.o)
 .data          0x00000000        0x0 libbb/lib.a(xreadlink.o)
 .bss           0x00000000        0x0 libbb/lib.a(xreadlink.o)
 .note.GNU-stack
                0x00000000        0x0 libbb/lib.a(xreadlink.o)
 .text          0x00000000        0x0 libbb/lib.a(xrealloc_vector.o)
 .data          0x00000000        0x0 libbb/lib.a(xrealloc_vector.o)
 .bss           0x00000000        0x0 libbb/lib.a(xrealloc_vector.o)
 .note.GNU-stack
                0x00000000        0x0 libbb/lib.a(xrealloc_vector.o)
 .text          0x00000000        0x0 libbb/lib.a(xregcomp.o)
 .data          0x00000000        0x0 libbb/lib.a(xregcomp.o)
 .bss           0x00000000        0x0 libbb/lib.a(xregcomp.o)
 .note.GNU-stack
                0x00000000        0x0 libbb/lib.a(xregcomp.o)
 .text          0x00000000        0x0 libbb/lib.a(bb_askpass.o)
 .data          0x00000000        0x0 libbb/lib.a(bb_askpass.o)
 .bss           0x00000000        0x0 libbb/lib.a(bb_askpass.o)
 .text.bb_ask_stdin
                0x00000000       0x10 libbb/lib.a(bb_askpass.o)
 .note.GNU-stack
                0x00000000        0x0 libbb/lib.a(bb_askpass.o)
 .text          0x00000000        0x0 libbb/lib.a(bb_bswap_64.o)
 .data          0x00000000        0x0 libbb/lib.a(bb_bswap_64.o)
 .bss           0x00000000        0x0 libbb/lib.a(bb_bswap_64.o)
 .note.GNU-stack
                0x00000000        0x0 libbb/lib.a(bb_bswap_64.o)
 .text          0x00000000        0x0 libbb/lib.a(bb_qsort.o)
 .data          0x00000000        0x0 libbb/lib.a(bb_qsort.o)
 .bss           0x00000000        0x0 libbb/lib.a(bb_qsort.o)
 .note.GNU-stack
                0x00000000        0x0 libbb/lib.a(bb_qsort.o)
 .text          0x00000000        0x0 libbb/lib.a(perror_nomsg.o)
 .data          0x00000000        0x0 libbb/lib.a(perror_nomsg.o)
 .bss           0x00000000        0x0 libbb/lib.a(perror_nomsg.o)
 .note.GNU-stack
                0x00000000        0x0 libbb/lib.a(perror_nomsg.o)
 .text          0x00000000        0x0 libpwdgrp/lib.a(pwd_grp.o)
 .data          0x00000000        0x0 libpwdgrp/lib.a(pwd_grp.o)
 .bss           0x00000000        0x0 libpwdgrp/lib.a(pwd_grp.o)
 .text.bb_internal_getpwnam_r
                0x00000000       0x14 libpwdgrp/lib.a(pwd_grp.o)
 .text.bb_internal_getpwent
                0x00000000       0x58 libpwdgrp/lib.a(pwd_grp.o)
 .text.bb_internal_endpwent
                0x00000000       0x48 libpwdgrp/lib.a(pwd_grp.o)
 .text.bb_internal_setpwent
                0x00000000       0x30 libpwdgrp/lib.a(pwd_grp.o)
 .text.bb_internal_getgrouplist
                0x00000000       0x5c libpwdgrp/lib.a(pwd_grp.o)
 .note.GNU-stack
                0x00000000        0x0 libpwdgrp/lib.a(pwd_grp.o)
 .text          0x00000000        0x0 libpwdgrp/lib.a(uidgid_get.o)
 .data          0x00000000        0x0 libpwdgrp/lib.a(uidgid_get.o)
 .bss           0x00000000        0x0 libpwdgrp/lib.a(uidgid_get.o)
 .note.GNU-stack
                0x00000000        0x0 libpwdgrp/lib.a(uidgid_get.o)
 .data          0x00000000        0x0 /home/paldier/k3_384/release/src-rt-6.x.4708/toolchains/hndtools-arm-linux-2.6.36-uclibc-4.5.3/bin/../arm-brcm-linux-uclibcgnueabi/sysroot/usr/lib/uclibc_nonshared.a(atexit.os)
 .bss           0x00000000        0x0 /home/paldier/k3_384/release/src-rt-6.x.4708/toolchains/hndtools-arm-linux-2.6.36-uclibc-4.5.3/bin/../arm-brcm-linux-uclibcgnueabi/sysroot/usr/lib/uclibc_nonshared.a(atexit.os)
 .note.GNU-stack
                0x00000000        0x0 /home/paldier/k3_384/release/src-rt-6.x.4708/toolchains/hndtools-arm-linux-2.6.36-uclibc-4.5.3/bin/../arm-brcm-linux-uclibcgnueabi/sysroot/usr/lib/uclibc_nonshared.a(atexit.os)
 .text          0x00000000        0x0 /home/paldier/k3_384/release/src-rt-6.x.4708/toolchains/hndtools-arm-linux-2.6.36-uclibc-4.5.3/bin/../lib/gcc/arm-brcm-linux-uclibcgnueabi/4.5.3/crtend.o
 .data          0x00000000        0x0 /home/paldier/k3_384/release/src-rt-6.x.4708/toolchains/hndtools-arm-linux-2.6.36-uclibc-4.5.3/bin/../lib/gcc/arm-brcm-linux-uclibcgnueabi/4.5.3/crtend.o
 .bss           0x00000000        0x0 /home/paldier/k3_384/release/src-rt-6.x.4708/toolchains/hndtools-arm-linux-2.6.36-uclibc-4.5.3/bin/../lib/gcc/arm-brcm-linux-uclibcgnueabi/4.5.3/crtend.o
 .note.GNU-stack
                0x00000000        0x0 /home/paldier/k3_384/release/src-rt-6.x.4708/toolchains/hndtools-arm-linux-2.6.36-uclibc-4.5.3/bin/../lib/gcc/arm-brcm-linux-uclibcgnueabi/4.5.3/crtend.o
 .text          0x00000000        0x0 /home/paldier/k3_384/release/src-rt-6.x.4708/toolchains/hndtools-arm-linux-2.6.36-uclibc-4.5.3/bin/../arm-brcm-linux-uclibcgnueabi/sysroot/usr/lib/crtn.o
 .data          0x00000000        0x0 /home/paldier/k3_384/release/src-rt-6.x.4708/toolchains/hndtools-arm-linux-2.6.36-uclibc-4.5.3/bin/../arm-brcm-linux-uclibcgnueabi/sysroot/usr/lib/crtn.o
 .bss           0x00000000        0x0 /home/paldier/k3_384/release/src-rt-6.x.4708/toolchains/hndtools-arm-linux-2.6.36-uclibc-4.5.3/bin/../arm-brcm-linux-uclibcgnueabi/sysroot/usr/lib/crtn.o
 .note.GNU-stack
                0x00000000        0x0 /home/paldier/k3_384/release/src-rt-6.x.4708/toolchains/hndtools-arm-linux-2.6.36-uclibc-4.5.3/bin/../arm-brcm-linux-uclibcgnueabi/sysroot/usr/lib/crtn.o

Memory Configuration

Name             Origin             Length             Attributes
*default*        0x00000000         0xffffffff

Linker script and memory map

LOAD /home/paldier/k3_384/release/src-rt-6.x.4708/toolchains/hndtools-arm-linux-2.6.36-uclibc-4.5.3/bin/../arm-brcm-linux-uclibcgnueabi/sysroot/usr/lib/crt1.o
LOAD /home/paldier/k3_384/release/src-rt-6.x.4708/toolchains/hndtools-arm-linux-2.6.36-uclibc-4.5.3/bin/../arm-brcm-linux-uclibcgnueabi/sysroot/usr/lib/crti.o
LOAD /home/paldier/k3_384/release/src-rt-6.x.4708/toolchains/hndtools-arm-linux-2.6.36-uclibc-4.5.3/bin/../lib/gcc/arm-brcm-linux-uclibcgnueabi/4.5.3/crtbegin.o
START GROUP
LOAD applets/built-in.o
LOAD archival/lib.a
LOAD archival/libarchive/lib.a
LOAD console-tools/lib.a
LOAD coreutils/lib.a
LOAD coreutils/libcoreutils/lib.a
LOAD debianutils/lib.a
LOAD e2fsprogs/lib.a
LOAD editors/lib.a
LOAD findutils/lib.a
LOAD init/lib.a
LOAD libbb/lib.a
LOAD libpwdgrp/lib.a
LOAD loginutils/lib.a
LOAD mailutils/lib.a
LOAD miscutils/lib.a
LOAD modutils/lib.a
LOAD networking/lib.a
LOAD networking/libiproute/lib.a
LOAD networking/udhcp/lib.a
LOAD printutils/lib.a
LOAD procps/lib.a
LOAD runit/lib.a
LOAD selinux/lib.a
LOAD shell/lib.a
LOAD sysklogd/lib.a
LOAD util-linux/lib.a
LOAD util-linux/volume_id/lib.a
LOAD archival/built-in.o
LOAD archival/libarchive/built-in.o
LOAD console-tools/built-in.o
LOAD coreutils/built-in.o
LOAD coreutils/libcoreutils/built-in.o
LOAD debianutils/built-in.o
LOAD e2fsprogs/built-in.o
LOAD editors/built-in.o
LOAD findutils/built-in.o
LOAD init/built-in.o
LOAD libbb/built-in.o
LOAD libpwdgrp/built-in.o
LOAD loginutils/built-in.o
LOAD mailutils/built-in.o
LOAD miscutils/built-in.o
LOAD modutils/built-in.o
LOAD networking/built-in.o
LOAD networking/libiproute/built-in.o
LOAD networking/udhcp/built-in.o
LOAD printutils/built-in.o
LOAD procps/built-in.o
LOAD runit/built-in.o
LOAD selinux/built-in.o
LOAD shell/built-in.o
LOAD sysklogd/built-in.o
LOAD util-linux/built-in.o
LOAD util-linux/volume_id/built-in.o
END GROUP
START GROUP
LOAD /home/paldier/k3_384/release/src-rt-6.x.4708/toolchains/hndtools-arm-linux-2.6.36-uclibc-4.5.3/bin/../arm-brcm-linux-uclibcgnueabi/sysroot/usr/lib/libcrypt.so
LOAD /home/paldier/k3_384/release/src-rt-6.x.4708/toolchains/hndtools-arm-linux-2.6.36-uclibc-4.5.3/bin/../arm-brcm-linux-uclibcgnueabi/sysroot/usr/lib/libm.so
LOAD /home/paldier/68u/release/src-rt-6.x.4708/router/arm-uclibc/stage/usr/lib/libptcsrv.so
END GROUP
LOAD /home/paldier/k3_384/release/src-rt-6.x.4708/toolchains/hndtools-arm-linux-2.6.36-uclibc-4.5.3/bin/../lib/gcc/arm-brcm-linux-uclibcgnueabi/4.5.3/../../../../arm-brcm-linux-uclibcgnueabi/lib/libgcc_s.so
START GROUP
LOAD /home/paldier/k3_384/release/src-rt-6.x.4708/toolchains/hndtools-arm-linux-2.6.36-uclibc-4.5.3/bin/../lib/gcc/arm-brcm-linux-uclibcgnueabi/4.5.3/../../../../arm-brcm-linux-uclibcgnueabi/lib/libgcc_s.so.1
LOAD /home/paldier/k3_384/release/src-rt-6.x.4708/toolchains/hndtools-arm-linux-2.6.36-uclibc-4.5.3/bin/../lib/gcc/arm-brcm-linux-uclibcgnueabi/4.5.3/libgcc.a
END GROUP
LOAD /home/paldier/k3_384/release/src-rt-6.x.4708/toolchains/hndtools-arm-linux-2.6.36-uclibc-4.5.3/bin/../lib/gcc/arm-brcm-linux-uclibcgnueabi/4.5.3/libgcc.a
LOAD /home/paldier/k3_384/release/src-rt-6.x.4708/toolchains/hndtools-arm-linux-2.6.36-uclibc-4.5.3/bin/../arm-brcm-linux-uclibcgnueabi/sysroot/usr/lib/libc.so
START GROUP
LOAD /home/paldier/k3_384/release/src-rt-6.x.4708/toolchains/hndtools-arm-linux-2.6.36-uclibc-4.5.3/bin/../arm-brcm-linux-uclibcgnueabi/sysroot/lib/libc.so.0
LOAD /home/paldier/k3_384/release/src-rt-6.x.4708/toolchains/hndtools-arm-linux-2.6.36-uclibc-4.5.3/bin/../arm-brcm-linux-uclibcgnueabi/sysroot/usr/lib/uclibc_nonshared.a
LOAD /home/paldier/k3_384/release/src-rt-6.x.4708/toolchains/hndtools-arm-linux-2.6.36-uclibc-4.5.3/bin/../arm-brcm-linux-uclibcgnueabi/sysroot/lib/ld-uClibc.so.0
END GROUP
LOAD /home/paldier/k3_384/release/src-rt-6.x.4708/toolchains/hndtools-arm-linux-2.6.36-uclibc-4.5.3/bin/../lib/gcc/arm-brcm-linux-uclibcgnueabi/4.5.3/../../../../arm-brcm-linux-uclibcgnueabi/lib/libgcc_s.so
START GROUP
LOAD /home/paldier/k3_384/release/src-rt-6.x.4708/toolchains/hndtools-arm-linux-2.6.36-uclibc-4.5.3/bin/../lib/gcc/arm-brcm-linux-uclibcgnueabi/4.5.3/../../../../arm-brcm-linux-uclibcgnueabi/lib/libgcc_s.so.1
LOAD /home/paldier/k3_384/release/src-rt-6.x.4708/toolchains/hndtools-arm-linux-2.6.36-uclibc-4.5.3/bin/../lib/gcc/arm-brcm-linux-uclibcgnueabi/4.5.3/libgcc.a
END GROUP
LOAD /home/paldier/k3_384/release/src-rt-6.x.4708/toolchains/hndtools-arm-linux-2.6.36-uclibc-4.5.3/bin/../lib/gcc/arm-brcm-linux-uclibcgnueabi/4.5.3/libgcc.a
LOAD /home/paldier/k3_384/release/src-rt-6.x.4708/toolchains/hndtools-arm-linux-2.6.36-uclibc-4.5.3/bin/../lib/gcc/arm-brcm-linux-uclibcgnueabi/4.5.3/crtend.o
LOAD /home/paldier/k3_384/release/src-rt-6.x.4708/toolchains/hndtools-arm-linux-2.6.36-uclibc-4.5.3/bin/../arm-brcm-linux-uclibcgnueabi/sysroot/usr/lib/crtn.o
                0x00008000                PROVIDE (__executable_start, 0x8000)
                0x000080f4                . = (0x8000 + SIZEOF_HEADERS)

.interp         0x000080f4       0x14
 *(SORT(.interp))
 .interp        0x000080f4       0x14 libbb/lib.a(appletlib.o)

.note.gnu.build-id
 *(SORT(.note.gnu.build-id))

.hash           0x00008108      0x938
 *(SORT(.hash))
 .hash          0x00008108      0x938 libbb/lib.a(appletlib.o)

.gnu.hash
 *(SORT(.gnu.hash))

.dynsym         0x00008a40     0x1450
 *(SORT(.dynsym))
 .dynsym        0x00008a40     0x1450 libbb/lib.a(appletlib.o)

.dynstr         0x00009e90      0xb14
 *(SORT(.dynstr))
 .dynstr        0x00009e90      0xb14 libbb/lib.a(appletlib.o)

.gnu.version    0x0000a9a4      0x28a
 *(SORT(.gnu.version))
 .gnu.version   0x0000a9a4      0x28a libbb/lib.a(appletlib.o)

.gnu.version_d  0x0000ac30        0x0
 *(SORT(.gnu.version_d))
 .gnu.version_d
                0x00000000        0x0 libbb/lib.a(appletlib.o)

.gnu.version_r  0x0000ac30       0x20
 *(SORT(.gnu.version_r))
 .gnu.version_r
                0x0000ac30       0x20 libbb/lib.a(appletlib.o)

.rel.dyn        0x0000ac50       0xc0
 *(SORT(.rel.init))
 *(SORT(.rel.text) SORT(.rel.text.*) SORT(.rel.gnu.linkonce.t.*))
 *(SORT(.rel.fini))
 *(SORT(.rel.rodata) SORT(.rel.rodata.*) SORT(.rel.gnu.linkonce.r.*))
 *(SORT(.rel.data.rel.ro*) SORT(.rel.gnu.linkonce.d.rel.ro.*))
 *(SORT(.rel.data) SORT(.rel.data.*) SORT(.rel.gnu.linkonce.d.*))
 *(SORT(.rel.tdata) SORT(.rel.tdata.*) SORT(.rel.gnu.linkonce.td.*))
 *(SORT(.rel.tbss) SORT(.rel.tbss.*) SORT(.rel.gnu.linkonce.tb.*))
 *(SORT(.rel.ctors))
 *(SORT(.rel.dtors))
 *(SORT(.rel.got))
 .rel.got       0x0000ac50       0xc0 libbb/lib.a(appletlib.o)
 *(SORT(.rel.bss) SORT(.rel.bss.*) SORT(.rel.gnu.linkonce.b.*))
 .rel.bss       0x00000000        0x0 libbb/lib.a(appletlib.o)
                0x0000ad10                PROVIDE (__rel_iplt_start, .)
 *(SORT(.rel.iplt))
                0x0000ad10                PROVIDE (__rel_iplt_end, .)
                0x0000ad10                PROVIDE (__rela_iplt_start, .)
                0x0000ad10                PROVIDE (__rela_iplt_end, .)

.rela.dyn       0x0000ad10        0x0
 *(SORT(.rela.init))
 *(SORT(.rela.text) SORT(.rela.text.*) SORT(.rela.gnu.linkonce.t.*))
 *(SORT(.rela.fini))
 *(SORT(.rela.rodata) SORT(.rela.rodata.*) SORT(.rela.gnu.linkonce.r.*))
 *(SORT(.rela.data) SORT(.rela.data.*) SORT(.rela.gnu.linkonce.d.*))
 *(SORT(.rela.tdata) SORT(.rela.tdata.*) SORT(.rela.gnu.linkonce.td.*))
 *(SORT(.rela.tbss) SORT(.rela.tbss.*) SORT(.rela.gnu.linkonce.tb.*))
 *(SORT(.rela.ctors))
 *(SORT(.rela.dtors))
 *(SORT(.rela.got))
 *(SORT(.rela.bss) SORT(.rela.bss.*) SORT(.rela.gnu.linkonce.b.*))
                0x0000ad10                PROVIDE (__rel_iplt_start, .)
                0x0000ad10                PROVIDE (__rel_iplt_end, .)
                0x0000ad10                PROVIDE (__rela_iplt_start, .)
 *(SORT(.rela.iplt))
                0x0000ad10                PROVIDE (__rela_iplt_end, .)

.rel.plt        0x0000ad10      0x910
 *(SORT(.rel.plt))
 .rel.plt       0x0000ad10      0x910 libbb/lib.a(appletlib.o)

.rela.plt
 *(SORT(.rela.plt))

.init           0x0000b620       0x10
 *(SORT(.init))
 .init          0x0000b620        0xc /home/paldier/k3_384/release/src-rt-6.x.4708/toolchains/hndtools-arm-linux-2.6.36-uclibc-4.5.3/bin/../arm-brcm-linux-uclibcgnueabi/sysroot/usr/lib/crti.o
                0x0000b620                _init
 .init          0x0000b62c        0x4 /home/paldier/k3_384/release/src-rt-6.x.4708/toolchains/hndtools-arm-linux-2.6.36-uclibc-4.5.3/bin/../arm-brcm-linux-uclibcgnueabi/sysroot/usr/lib/crtn.o

.plt            0x0000b630      0xdac
 *(SORT(.plt))
 .plt           0x0000b630      0xdac libbb/lib.a(appletlib.o)
                0x0000b644                dirname
                0x0000b650                getpriority
                0x0000b65c                poll
                0x0000b668                _setjmp
                0x0000b674                vasprintf
                0x0000b680                bind
                0x0000b68c                sysconf
                0x0000b6a4                gethostbyname
                0x0000b6b0                sqrt
                0x0000b6bc                strftime
                0x0000b6c8                mknod
                0x0000b6d4                __errno_location
                0x0000b6e0                inet_aton
                0x0000b6ec                fcntl64
                0x0000b6f8                delete_module
                0x0000b704                getenv
                0x0000b710                fwrite
                0x0000b71c                regexec
                0x0000b728                system
                0x0000b734                __aeabi_ldivmod@@GCC_3.5
                0x0000b740                ctime_r
                0x0000b74c                __res_state
                0x0000b758                __aeabi_dmul@@GCC_3.5
                0x0000b764                crypt
                0x0000b770                usleep
                0x0000b77c                memcpy
                0x0000b788                umount2
                0x0000b794                connect
                0x0000b7a0                stpcpy
                0x0000b7ac                uname
                0x0000b7b8                div
                0x0000b7c4                getline
                0x0000b7d0                sleep
                0x0000b7dc                realloc
                0x0000b7e8                ether_aton_r
                0x0000b7f4                syscall
                0x0000b800                vfprintf
                0x0000b80c                endmntent
                0x0000b818                __aeabi_llsl@@GCC_3.5
                0x0000b824                sysinfo
                0x0000b830                getegid
                0x0000b83c                readlink
                0x0000b848                strspn
                0x0000b854                gettimeofday
                0x0000b860                __res_init
                0x0000b86c                strcat
                0x0000b878                fstat64
                0x0000b884                feof
                0x0000b890                realpath
                0x0000b89c                lchown
                0x0000b8a8                execve
                0x0000b8b4                chown
                0x0000b8c0                rmdir
                0x0000b8cc                symlink
                0x0000b8d8                openlog
                0x0000b8e4                putenv
                0x0000b8f0                getcwd
                0x0000b8fc                __cmsg_nxthdr
                0x0000b908                getnameinfo
                0x0000b914                setenv
                0x0000b920                strcasecmp
                0x0000b92c                ptsname_r
                0x0000b938                freeaddrinfo
                0x0000b944                strtoul
                0x0000b950                mkdir
                0x0000b95c                malloc
                0x0000b968                klogctl
                0x0000b974                strrchr
                0x0000b980                strncmp
                0x0000b98c                swapon
                0x0000b998                __uClibc_main
                0x0000b9a4                inet_pton
                0x0000b9b0                fopen64
                0x0000b9bc                fgets_unlocked
                0x0000b9c8                __aeabi_dcmpeq@@GCC_3.5
                0x0000b9d4                getmntent_r
                0x0000b9e0                setlinebuf
                0x0000b9ec                ioctl
                0x0000b9f8                strlen
                0x0000ba04                ctime
                0x0000ba10                opendir
                0x0000ba1c                setmntent
                0x0000ba28                strtod
                0x0000ba34                __cxa_atexit
                0x0000ba40                sendto
                0x0000ba4c                strtol
                0x0000ba58                sendmsg
                0x0000ba64                ttyname_r
                0x0000ba70                snprintf
                0x0000ba7c                dup
                0x0000ba88                dup2
                0x0000ba94                read
                0x0000baa0                lseek64
                0x0000baac                execv
                0x0000bab8                localtime_r
                0x0000bac4                select
                0x0000bad0                _exit
                0x0000badc                strncasecmp
                0x0000bae8                __fputc_unlocked
                0x0000baf4                access
                0x0000bb00                fdopen
                0x0000bb0c                setbuf
                0x0000bb18                stat64
                0x0000bb24                ftello64
                0x0000bb30                wait
                0x0000bb3c                getpid
                0x0000bb48                sched_yield
                0x0000bb54                __fgetc_unlocked
                0x0000bb60                strtoull
                0x0000bb6c                __aeabi_ddiv@@GCC_3.5
                0x0000bb78                sigprocmask
                0x0000bb84                mktime
                0x0000bb90                memmove
                0x0000bb9c                strsep
                0x0000bba8                pclose
                0x0000bbb4                getpagesize
                0x0000bbc0                fclose
                0x0000bbcc                setsockopt
                0x0000bbd8                fread
                0x0000bbe4                bsearch
                0x0000bbf0                vsprintf
                0x0000bbfc                log
                0x0000bc08                __aeabi_dadd@@GCC_3.5
                0x0000bc14                chmod
                0x0000bc20                dprintf
                0x0000bc2c                tcsetpgrp
                0x0000bc38                lstat64
                0x0000bc44                mallopt
                0x0000bc50                ether_hostton
                0x0000bc5c                time
                0x0000bc68                setpgrp
                0x0000bc74                strtok
                0x0000bc80                fileno
                0x0000bc8c                vprintf
                0x0000bc98                write
                0x0000bca4                getsockopt
                0x0000bcb0                atoll
                0x0000bcbc                isatty
                0x0000bcc8                times
                0x0000bcd4                closedir
                0x0000bce0                strchrnul
                0x0000bcec                longjmp
                0x0000bcf8                __aeabi_d2lz
                0x0000bd04                setpriority
                0x0000bd10                localtime
                0x0000bd1c                close
                0x0000bd28                swapoff
                0x0000bd34                setsid
                0x0000bd40                unlockpt
                0x0000bd4c                mempcpy
                0x0000bd58                __aeabi_uidiv@@GCC_3.5
                0x0000bd64                regfree
                0x0000bd70                sigaction
                0x0000bd7c                ferror
                0x0000bd88                umask
                0x0000bd94                sscanf
                0x0000bda0                pread64
                0x0000bdac                strncpy
                0x0000bdb8                strptime
                0x0000bdc4                mmap64
                0x0000bdd0                tcsetattr
                0x0000bddc                __aeabi_d2uiz@@GCC_3.5
                0x0000bde8                sigaddset
                0x0000bdf4                link
                0x0000be00                atof
                0x0000be0c                init_module
                0x0000be18                setuid
                0x0000be24                __aeabi_i2d@@GCC_3.5
                0x0000be30                tcgetattr
                0x0000be3c                unsetenv
                0x0000be48                __aeabi_uidivmod@@GCC_3.5
                0x0000be54                getppid
                0x0000be60                chdir
                0x0000be6c                unlink
                0x0000be78                execl
                0x0000be84                closelog
                0x0000be90                sync
                0x0000be9c                regerror
                0x0000bea8                __sigsetjmp
                0x0000beb4                fflush
                0x0000bec0                memset
                0x0000becc                inet_ntoa
                0x0000bed8                __aeabi_dsub@@GCC_3.5
                0x0000bee4                hstrerror
                0x0000bef0                if_nametoindex
                0x0000befc                qsort
                0x0000bf08                __h_errno_location
                0x0000bf14                __aeabi_dcmpge@@GCC_3.5
                0x0000bf20                flock
                0x0000bf2c                stime
                0x0000bf38                fdatasync
                0x0000bf44                getservbyport
                0x0000bf50                vfork
                0x0000bf5c                getuid
                0x0000bf68                tcflush
                0x0000bf74                fprintf
                0x0000bf80                sigtimedwait
                0x0000bf8c                utimes
                0x0000bf98                recvmsg
                0x0000bfa4                inet_addr
                0x0000bfb0                fnmatch
                0x0000bfbc                strcspn
                0x0000bfc8                __aeabi_uldivmod@@GCC_3.5
                0x0000bfd4                setgroups
                0x0000bfe0                abort
                0x0000bfec                memcmp
                0x0000bff8                vsnprintf
                0x0000c004                fchown
                0x0000c010                recvfrom
                0x0000c01c                syslog
                0x0000c028                sprintf
                0x0000c034                clearerr
                0x0000c040                strcasestr
                0x0000c04c                strnlen
                0x0000c058                socket
                0x0000c064                exp
                0x0000c070                siglongjmp
                0x0000c07c                fputs_unlocked
                0x0000c088                sin
                0x0000c094                regcomp
                0x0000c0a0                rand
                0x0000c0ac                memchr
                0x0000c0b8                statfs64
                0x0000c0c4                __aeabi_ui2d@@GCC_3.5
                0x0000c0d0                SEND_PTCSRV_EVENT
                0x0000c0dc                exit
                0x0000c0e8                rename
                0x0000c0f4                fork
                0x0000c100                getmntent
                0x0000c10c                raise
                0x0000c118                pow
                0x0000c124                __aeabi_idiv@@GCC_3.5
                0x0000c130                strstr
                0x0000c13c                open64
                0x0000c148                strcmp
                0x0000c154                atan2
                0x0000c160                __aeabi_idivmod@@GCC_3.5
                0x0000c16c                getopt
                0x0000c178                waitpid
                0x0000c184                __aeabi_llsr@@GCC_3.5
                0x0000c190                __aeabi_d2iz@@GCC_3.5
                0x0000c19c                execlp
                0x0000c1a8                setrlimit64
                0x0000c1b4                ungetc
                0x0000c1c0                accept
                0x0000c1cc                mount
                0x0000c1d8                free
                0x0000c1e4                atoi
                0x0000c1f0                strpbrk
                0x0000c1fc                strverscmp
                0x0000c208                alarm
                0x0000c214                strchr
                0x0000c220                fchmod
                0x0000c22c                strtoll
                0x0000c238                fsync
                0x0000c244                cos
                0x0000c250                getgid
                0x0000c25c                strerror
                0x0000c268                listen
                0x0000c274                srand
                0x0000c280                printf
                0x0000c28c                getopt_long
                0x0000c298                popen
                0x0000c2a4                mkstemp64
                0x0000c2b0                strdup
                0x0000c2bc                puts
                0x0000c2c8                fscanf
                0x0000c2d4                setgid
                0x0000c2e0                ftruncate64
                0x0000c2ec                getrlimit64
                0x0000c2f8                execvp
                0x0000c304                signal
                0x0000c310                inet_ntop
                0x0000c31c                readdir64
                0x0000c328                strsignal
                0x0000c334                __aeabi_l2d@@GCC_3.5
                0x0000c340                pipe
                0x0000c34c                getaddrinfo
                0x0000c358                __aeabi_dcmplt@@GCC_3.5
                0x0000c364                __aeabi_dcmpgt@@GCC_3.5
                0x0000c370                hasmntopt
                0x0000c37c                memrchr
                0x0000c388                strcpy
                0x0000c394                kill
                0x0000c3a0                geteuid
                0x0000c3ac                clearenv
                0x0000c3c4                grantpt
                0x0000c3d0                getgroups

.iplt
 *(SORT(.iplt))

.text           0x0000c3dc    0x55108
 *(SORT(.text.unlikely) SORT(.text.*_unlikely))
 *(SORT(.text.exit) SORT(.text.exit.*))
 *(SORT(.text.startup) SORT(.text.startup.*))
 *(SORT(.text.hot) SORT(.text.hot.*))
 *(SORT(.text) SORT(.stub) SORT(.text.*) SORT(.gnu.linkonce.t.*))
 .text          0x0000c3dc       0x3c /home/paldier/k3_384/release/src-rt-6.x.4708/toolchains/hndtools-arm-linux-2.6.36-uclibc-4.5.3/bin/../arm-brcm-linux-uclibcgnueabi/sysroot/usr/lib/crt1.o
                0x0000c3dc                _start
 .text          0x0000c418       0x98 /home/paldier/k3_384/release/src-rt-6.x.4708/toolchains/hndtools-arm-linux-2.6.36-uclibc-4.5.3/bin/../lib/gcc/arm-brcm-linux-uclibcgnueabi/4.5.3/crtbegin.o
 .text.find_applet_by_name
                0x0000c4b0       0xc0 libbb/lib.a(appletlib.o)
                0x0000c4b0                find_applet_by_name
 .text.bb_show_usage
                0x0000c570       0xcc libbb/lib.a(appletlib.o)
                0x0000c570                bb_show_usage
 .text.lbb_prepare
                0x0000c63c       0x34 libbb/lib.a(appletlib.o)
                0x0000c63c                lbb_prepare
 .text.run_applet_no_and_exit
                0x0000c670      0x144 libbb/lib.a(appletlib.o)
                0x0000c670                run_applet_no_and_exit
 .text.run_applet_and_exit
                0x0000c7b4      0x240 libbb/lib.a(appletlib.o)
 .text.main     0x0000c9f4       0x88 libbb/lib.a(appletlib.o)
                0x0000c9f4                main
 .text.is_prefixed_with
                0x0000ca7c       0x34 libbb/lib.a(compare_string_array.o)
                0x0000ca7c                is_prefixed_with
 .text.index_in_strings
                0x0000cab0       0x54 libbb/lib.a(compare_string_array.o)
                0x0000cab0                index_in_strings
 .text.index_in_substrings
                0x0000cb04       0x8c libbb/lib.a(compare_string_array.o)
                0x0000cb04                index_in_substrings
 .text.nth_string
                0x0000cb90       0x34 libbb/lib.a(compare_string_array.o)
                0x0000cb90                nth_string
 .text.bb_basename
                0x0000cbc4       0x20 libbb/lib.a(get_last_path_component.o)
                0x0000cbc4                bb_basename
 .text.bb_get_last_path_component_nostrip
                0x0000cbe4       0x38 libbb/lib.a(get_last_path_component.o)
                0x0000cbe4                bb_get_last_path_component_nostrip
 .text.bb_get_last_path_component_strip
                0x0000cc1c       0x50 libbb/lib.a(get_last_path_component.o)
                0x0000cc1c                bb_get_last_path_component_strip
 .text.last_char_is
                0x0000cc6c       0x3c libbb/lib.a(last_char_is.o)
                0x0000cc6c                last_char_is
 .text.bb_verror_msg
                0x0000cca8      0x228 libbb/lib.a(verror_msg.o)
                0x0000cca8                bb_verror_msg
 .text.bb_error_msg_and_die
                0x0000ced0       0x20 libbb/lib.a(verror_msg.o)
                0x0000ced0                bb_error_msg_and_die
 .text.bb_error_msg
                0x0000cef0       0x28 libbb/lib.a(verror_msg.o)
                0x0000cef0                bb_error_msg
 .text.xfunc_die
                0x0000cf18       0x38 libbb/lib.a(xfunc_die.o)
                0x0000cf18                xfunc_die
 .text.wh_helper
                0x0000cf50       0x4c libbb/lib.a(xfuncs.o)
 .text.ndelay_on
                0x0000cf9c       0x34 libbb/lib.a(xfuncs.o)
                0x0000cf9c                ndelay_on
 .text.ndelay_off
                0x0000cfd0       0x34 libbb/lib.a(xfuncs.o)
                0x0000cfd0                ndelay_off
 .text.close_on_exec_on
                0x0000d004        0xc libbb/lib.a(xfuncs.o)
                0x0000d004                close_on_exec_on
 .text.strncpy_IFNAMSIZ
                0x0000d010        0x8 libbb/lib.a(xfuncs.o)
                0x0000d010                strncpy_IFNAMSIZ
 .text.utoa_to_buf
                0x0000d018       0x94 libbb/lib.a(xfuncs.o)
                0x0000d018                utoa_to_buf
 .text.itoa_to_buf
                0x0000d0ac       0x28 libbb/lib.a(xfuncs.o)
                0x0000d0ac                itoa_to_buf
 .text.utoa     0x0000d0d4       0x38 libbb/lib.a(xfuncs.o)
                0x0000d0d4                utoa
 .text.itoa     0x0000d10c       0x38 libbb/lib.a(xfuncs.o)
                0x0000d10c                itoa
 .text.bin2hex  0x0000d144       0x60 libbb/lib.a(xfuncs.o)
                0x0000d144                bin2hex
 .text.hex2bin  0x0000d1a4       0xfc libbb/lib.a(xfuncs.o)
                0x0000d1a4                hex2bin
 .text.bb_putchar_stderr
                0x0000d2a0       0x1c libbb/lib.a(xfuncs.o)
                0x0000d2a0                bb_putchar_stderr
 .text.full_write1_str
                0x0000d2bc       0x20 libbb/lib.a(xfuncs.o)
                0x0000d2bc                full_write1_str
 .text.full_write2_str
                0x0000d2dc       0x20 libbb/lib.a(xfuncs.o)
                0x0000d2dc                full_write2_str
 .text.get_terminal_width_height
                0x0000d2fc       0xa8 libbb/lib.a(xfuncs.o)
                0x0000d2fc                get_terminal_width_height
 .text.get_terminal_width
                0x0000d3a4       0x18 libbb/lib.a(xfuncs.o)
                0x0000d3a4                get_terminal_width
 .text.tcsetattr_stdin_TCSANOW
                0x0000d3bc       0x10 libbb/lib.a(xfuncs.o)
                0x0000d3bc                tcsetattr_stdin_TCSANOW
 .text.safe_waitpid
                0x0000d3cc       0x54 libbb/lib.a(xfuncs.o)
                0x0000d3cc                safe_waitpid
 .text.wait_any_nohang
                0x0000d420       0x10 libbb/lib.a(xfuncs.o)
                0x0000d420                wait_any_nohang
 .text.wait4pid
                0x0000d430       0x4c libbb/lib.a(xfuncs.o)
                0x0000d430                wait4pid
 .text.malloc_or_warn
                0x0000d47c       0x4c libbb/lib.a(xfuncs_printf.o)
                0x0000d47c                malloc_or_warn
 .text.xmalloc  0x0000d4c8       0x40 libbb/lib.a(xfuncs_printf.o)
                0x0000d4c8                xmalloc
 .text.xrealloc
                0x0000d508       0x40 libbb/lib.a(xfuncs_printf.o)
                0x0000d508                xrealloc
 .text.xzalloc  0x0000d548       0x24 libbb/lib.a(xfuncs_printf.o)
                0x0000d548                xzalloc
 .text.xstrdup  0x0000d56c       0x3c libbb/lib.a(xfuncs_printf.o)
                0x0000d56c                xstrdup
 .text.xstrndup
                0x0000d5a8       0x50 libbb/lib.a(xfuncs_printf.o)
                0x0000d5a8                xstrndup
 .text.xmemdup  0x0000d5f8       0x24 libbb/lib.a(xfuncs_printf.o)
                0x0000d5f8                xmemdup
 .text.xfopen   0x0000d61c       0x34 libbb/lib.a(xfuncs_printf.o)
                0x0000d61c                xfopen
 .text.xopen3   0x0000d650       0x34 libbb/lib.a(xfuncs_printf.o)
                0x0000d650                xopen3
 .text.xopen    0x0000d684        0x8 libbb/lib.a(xfuncs_printf.o)
                0x0000d684                xopen
 .text.open3_or_warn
                0x0000d68c       0x3c libbb/lib.a(xfuncs_printf.o)
                0x0000d68c                open3_or_warn
 .text.open_or_warn
                0x0000d6c8        0x8 libbb/lib.a(xfuncs_printf.o)
                0x0000d6c8                open_or_warn
 .text.xunlink  0x0000d6d0       0x34 libbb/lib.a(xfuncs_printf.o)
                0x0000d6d0                xunlink
 .text.xrename  0x0000d704       0x3c libbb/lib.a(xfuncs_printf.o)
                0x0000d704                xrename
 .text.xpipe    0x0000d740       0x2c libbb/lib.a(xfuncs_printf.o)
                0x0000d740                xpipe
 .text.xdup2    0x0000d76c       0x30 libbb/lib.a(xfuncs_printf.o)
                0x0000d76c                xdup2
 .text.xmove_fd
                0x0000d79c       0x20 libbb/lib.a(xfuncs_printf.o)
                0x0000d79c                xmove_fd
 .text.xwrite   0x0000d7bc       0x34 libbb/lib.a(xfuncs_printf.o)
                0x0000d7bc                xwrite
 .text.xwrite_str
                0x0000d7f0       0x28 libbb/lib.a(xfuncs_printf.o)
                0x0000d7f0                xwrite_str
 .text.xclose   0x0000d818       0x2c libbb/lib.a(xfuncs_printf.o)
                0x0000d818                xclose
 .text.xlseek   0x0000d844       0x6c libbb/lib.a(xfuncs_printf.o)
                0x0000d844                xlseek
 .text.xmkstemp
                0x0000d8b0       0x34 libbb/lib.a(xfuncs_printf.o)
                0x0000d8b0                xmkstemp
 .text.die_if_ferror
                0x0000d8e4       0x34 libbb/lib.a(xfuncs_printf.o)
                0x0000d8e4                die_if_ferror
 .text.die_if_ferror_stdout
                0x0000d918       0x2c libbb/lib.a(xfuncs_printf.o)
                0x0000d918                die_if_ferror_stdout
 .text.fflush_all
                0x0000d944        0x8 libbb/lib.a(xfuncs_printf.o)
                0x0000d944                fflush_all
 .text.bb_putchar
                0x0000d94c       0x20 libbb/lib.a(xfuncs_printf.o)
                0x0000d94c                bb_putchar
 .text.xasprintf
                0x0000d96c       0x50 libbb/lib.a(xfuncs_printf.o)
                0x0000d96c                xasprintf
 .text.xsetenv  0x0000d9bc       0x30 libbb/lib.a(xfuncs_printf.o)
                0x0000d9bc                xsetenv
 .text.bb_unsetenv
                0x0000d9ec       0x44 libbb/lib.a(xfuncs_printf.o)
                0x0000d9ec                bb_unsetenv
 .text.bb_unsetenv_and_free
                0x0000da30       0x18 libbb/lib.a(xfuncs_printf.o)
                0x0000da30                bb_unsetenv_and_free
 .text.xsetgid  0x0000da48       0x2c libbb/lib.a(xfuncs_printf.o)
                0x0000da48                xsetgid
 .text.xsetuid  0x0000da74       0x2c libbb/lib.a(xfuncs_printf.o)
                0x0000da74                xsetuid
 .text.xchdir   0x0000daa0       0x34 libbb/lib.a(xfuncs_printf.o)
                0x0000daa0                xchdir
 .text.warn_opendir
                0x0000dad4       0x3c libbb/lib.a(xfuncs_printf.o)
                0x0000dad4                warn_opendir
 .text.xopendir
                0x0000db10       0x34 libbb/lib.a(xfuncs_printf.o)
                0x0000db10                xopendir
 .text.xsocket  0x0000db44       0x2c libbb/lib.a(xfuncs_printf.o)
                0x0000db44                xsocket
 .text.xbind    0x0000db70       0x2c libbb/lib.a(xfuncs_printf.o)
                0x0000db70                xbind
 .text.xlisten  0x0000db9c       0x2c libbb/lib.a(xfuncs_printf.o)
                0x0000db9c                xlisten
 .text.xsendto  0x0000dbc8       0x40 libbb/lib.a(xfuncs_printf.o)
                0x0000dbc8                xsendto
 .text.xstat    0x0000dc08       0x34 libbb/lib.a(xfuncs_printf.o)
                0x0000dc08                xstat
 .text.xfstat   0x0000dc3c       0x1c libbb/lib.a(xfuncs_printf.o)
                0x0000dc3c                xfstat
 .text.ioctl_or_perror_and_die
                0x0000dc58       0x5c libbb/lib.a(xfuncs_printf.o)
                0x0000dc58                ioctl_or_perror_and_die
 .text.ioctl_or_perror
                0x0000dcb4       0x5c libbb/lib.a(xfuncs_printf.o)
                0x0000dcb4                ioctl_or_perror
 .text.bb_ioctl_or_warn
                0x0000dd10       0x24 libbb/lib.a(xfuncs_printf.o)
                0x0000dd10                bb_ioctl_or_warn
 .text.bb_xioctl
                0x0000dd34       0x1c libbb/lib.a(xfuncs_printf.o)
                0x0000dd34                bb_xioctl
 .text.xmalloc_ttyname
                0x0000dd50       0x34 libbb/lib.a(xfuncs_printf.o)
                0x0000dd50                xmalloc_ttyname
 .text.generate_uuid
                0x0000dd84       0xb4 libbb/lib.a(xfuncs_printf.o)
                0x0000dd84                generate_uuid
 .text.xfork    0x0000de38       0x30 libbb/lib.a(xfuncs_printf.o)
                0x0000de38                xfork
 .text.bb_full_fd_action
                0x0000de68      0x144 libbb/lib.a(copyfd.o)
 .text.bb_copyfd_size
                0x0000dfac       0x18 libbb/lib.a(copyfd.o)
                0x0000dfac                bb_copyfd_size
 .text.bb_copyfd_exact_size
                0x0000dfc4       0x68 libbb/lib.a(copyfd.o)
                0x0000dfc4                bb_copyfd_exact_size
 .text.bb_copyfd_eof
                0x0000e02c        0xc libbb/lib.a(copyfd.o)
                0x0000e02c                bb_copyfd_eof
 .text.full_write
                0x0000e038       0x58 libbb/lib.a(full_write.o)
                0x0000e038                full_write
 .text.bb_perror_msg
                0x0000e090       0x54 libbb/lib.a(perror_msg.o)
                0x0000e090                bb_perror_msg
 .text.bb_perror_msg_and_die
                0x0000e0e4       0x4c libbb/lib.a(perror_msg.o)
                0x0000e0e4                bb_perror_msg_and_die
 .text.bb_simple_perror_msg
                0x0000e130       0x20 libbb/lib.a(perror_msg.o)
                0x0000e130                bb_simple_perror_msg
 .text.bb_simple_perror_msg_and_die
                0x0000e150       0x24 libbb/lib.a(perror_msg.o)
                0x0000e150                bb_simple_perror_msg_and_die
 .text.safe_read
                0x0000e174       0x54 libbb/lib.a(read.o)
                0x0000e174                safe_read
 .text.full_read
                0x0000e1c8       0x5c libbb/lib.a(read.o)
                0x0000e1c8                full_read
 .text.read_close
                0x0000e224       0x20 libbb/lib.a(read.o)
                0x0000e224                read_close
 .text.open_read_close
                0x0000e244       0x2c libbb/lib.a(read.o)
                0x0000e244                open_read_close
 .text.safe_write
                0x0000e270       0x54 libbb/lib.a(safe_write.o)
                0x0000e270                safe_write
 .text.record_signo
                0x0000e2c4       0x1c libbb/lib.a(signals.o)
                0x0000e2c4                record_signo
 .text.sigaction_set
                0x0000e2e0        0x8 libbb/lib.a(signals.o)
                0x0000e2e0                sigaction_set
 .text.sigprocmask_allsigs
                0x0000e2e8       0x20 libbb/lib.a(signals.o)
                0x0000e2e8                sigprocmask_allsigs
 .text.bb_signals
                0x0000e308       0x44 libbb/lib.a(signals.o)
                0x0000e308                bb_signals
 .text.bb_signals_recursive_norestart
                0x0000e34c       0x64 libbb/lib.a(signals.o)
                0x0000e34c                bb_signals_recursive_norestart
 .text.sig_unblock
                0x0000e3b0       0x34 libbb/lib.a(signals.o)
                0x0000e3b0                sig_unblock
 .text.kill_myself_with_sig
                0x0000e3e4       0x28 libbb/lib.a(signals.o)
                0x0000e3e4                kill_myself_with_sig
 .text.signal_SA_RESTART_empty_mask
                0x0000e40c       0x44 libbb/lib.a(signals.o)
                0x0000e40c                signal_SA_RESTART_empty_mask
 .text.signal_no_SA_RESTART_empty_mask
                0x0000e450       0x3c libbb/lib.a(signals.o)
                0x0000e450                signal_no_SA_RESTART_empty_mask
 .text.get_mono
                0x0000e48c       0x38 libbb/lib.a(time.o)
 .text.strftime_fmt
                0x0000e4c4       0x48 libbb/lib.a(time.o)
 .text.parse_datestr
                0x0000e50c      0x4e0 libbb/lib.a(time.o)
                0x0000e50c                parse_datestr
 .text.validate_tm_time
                0x0000e9ec       0x38 libbb/lib.a(time.o)
                0x0000e9ec                validate_tm_time
 .text.strftime_HHMMSS
                0x0000ea24       0x1c libbb/lib.a(time.o)
                0x0000ea24                strftime_HHMMSS
 .text.strftime_YYYYMMDDHHMMSS
                0x0000ea40       0x1c libbb/lib.a(time.o)
                0x0000ea40                strftime_YYYYMMDDHHMMSS
 .text.monotonic_us
                0x0000ea5c       0x40 libbb/lib.a(time.o)
                0x0000ea5c                monotonic_us
 .text.monotonic_ms
                0x0000ea9c       0x40 libbb/lib.a(time.o)
                0x0000ea9c                monotonic_ms
 .text.monotonic_sec
                0x0000eadc       0x14 libbb/lib.a(time.o)
                0x0000eadc                monotonic_sec
 .text.ret_ERANGE
                0x0000eaf0       0x2c libbb/lib.a(bb_strtonum.o)
 .text.handle_errors.clone.0
                0x0000eb1c       0x64 libbb/lib.a(bb_strtonum.o)
 .text.bb_strtoull
                0x0000eb80       0x74 libbb/lib.a(bb_strtonum.o)
                0x0000eb80                bb_strtoull
 .text.bb_strtoll
                0x0000ebf4       0x7c libbb/lib.a(bb_strtonum.o)
                0x0000ebf4                bb_strtoll
 .text.bb_strtoul
                0x0000ec70       0x78 libbb/lib.a(bb_strtonum.o)
                0x0000ec70                bb_strtoul
 .text.bb_strtol
                0x0000ece8       0x80 libbb/lib.a(bb_strtonum.o)
                0x0000ece8                bb_strtol
 .text.chpasswd_main
                0x0000ed68      0x1e0 loginutils/lib.a(chpasswd.o)
                0x0000ed68                chpasswd_main
 .text.alarm_handler
                0x0000ef48       0x50 loginutils/lib.a(login.o)
 .text.login_main
                0x0000ef98      0x4a4 loginutils/lib.a(login.o)
                0x0000ef98                login_main
 .text.crondlog
                0x0000f43c       0x58 miscutils/lib.a(crond.o)
 .text.log8     0x0000f494       0x28 miscutils/lib.a(crond.o)
 .text.log7     0x0000f4bc       0x28 miscutils/lib.a(crond.o)
 .text.log5     0x0000f4e4       0x28 miscutils/lib.a(crond.o)
 .text.reopen_logfile_to_stderr
                0x0000f50c       0x44 miscutils/lib.a(crond.o)
 .text.delete_cronfile
                0x0000f550       0xc4 miscutils/lib.a(crond.o)
 .text.ParseField
                0x0000f614      0x278 miscutils/lib.a(crond.o)
 .text.load_crontab
                0x0000f88c      0x350 miscutils/lib.a(crond.o)
 .text.rescan_crontab_dir
                0x0000fbdc       0xcc miscutils/lib.a(crond.o)
 .text.safe_setenv
                0x0000fca8       0x50 miscutils/lib.a(crond.o)
 .text.start_one_job
                0x0000fcf8      0x1e8 miscutils/lib.a(crond.o)
 .text.crond_main
                0x0000fee0      0x4d0 miscutils/lib.a(crond.o)
                0x0000fee0                crond_main
 .text.devmem_main
                0x000103b0      0x264 miscutils/lib.a(devmem.o)
                0x000103b0                devmem_main
 .text.show_progress.clone.0
                0x00010614       0x5c miscutils/lib.a(flash_eraseall.o)
 .text.flash_eraseall_main
                0x00010670      0x3a0 miscutils/lib.a(flash_eraseall.o)
                0x00010670                flash_eraseall_main
 .text.ionice_main
                0x00010a10      0x190 miscutils/lib.a(ionice.o)
                0x00010a10                ionice_main
 .text.at_end   0x00010ba0       0x38 miscutils/lib.a(less.o)
 .text.cap_cur_fline
                0x00010bd8       0x4c miscutils/lib.a(less.o)
 .text.clear_line
                0x00010c24       0x30 miscutils/lib.a(less.o)
 .text.print_statusline
                0x00010c54       0x44 miscutils/lib.a(less.o)
 .text.read_lines
                0x00010c98      0x370 miscutils/lib.a(less.o)
 .text.move_cursor
                0x00011008       0x28 miscutils/lib.a(less.o)
 .text.print_hilite
                0x00011030       0x20 miscutils/lib.a(less.o)
 .text.print_ascii
                0x00011050      0x114 miscutils/lib.a(less.o)
 .text.set_tty_cooked
                0x00011164       0x34 miscutils/lib.a(less.o)
 .text.less_exit
                0x00011198       0x28 miscutils/lib.a(less.o)
 .text.sig_catcher
                0x000111c0        0x8 miscutils/lib.a(less.o)
 .text.status_print
                0x000111c8       0x94 miscutils/lib.a(less.o)
 .text.buffer_print
                0x0001125c      0x104 miscutils/lib.a(less.o)
 .text.buffer_fill_and_print
                0x00011360       0x84 miscutils/lib.a(less.o)
 .text.reinitialize
                0x000113e4       0xcc miscutils/lib.a(less.o)
 .text.change_file
                0x000114b0       0x8c miscutils/lib.a(less.o)
 .text.buffer_down
                0x0001153c       0x38 miscutils/lib.a(less.o)
 .text.buffer_up
                0x00011574       0x40 miscutils/lib.a(less.o)
 .text.buffer_to_line
                0x000115b4       0xd4 miscutils/lib.a(less.o)
 .text.buffer_line
                0x00011688        0x8 miscutils/lib.a(less.o)
 .text.buffer_lineno
                0x00011690        0x8 miscutils/lib.a(less.o)
 .text.getch_nowait
                0x00011698      0x118 miscutils/lib.a(less.o)
 .text.less_getch
                0x000117b0       0x58 miscutils/lib.a(less.o)
 .text.less_gets
                0x00011808       0xe0 miscutils/lib.a(less.o)
 .text.examine_file
                0x000118e8       0xa0 miscutils/lib.a(less.o)
 .text.less_main
                0x00011988      0x770 miscutils/lib.a(less.o)
                0x00011988                less_main
 .text.strings_main
                0x000120f8      0x208 miscutils/lib.a(strings.o)
                0x000120f8                strings_main
 .text.check_module_name_match
                0x00012300       0x64 modutils/lib.a(insmod.o)
 .text.insmod_main
                0x00012364      0x144 modutils/lib.a(insmod.o)
                0x00012364                insmod_main
 .text.lsmod_main
                0x000124a8      0x184 modutils/lib.a(lsmod.o)
                0x000124a8                lsmod_main
 .text.humanly_readable_name
                0x0001262c       0x14 modutils/lib.a(modprobe.o)
 .text.read_config
                0x00012640       0x34 modutils/lib.a(modprobe.o)
 .text.gather_options_str
                0x00012674       0x74 modutils/lib.a(modprobe.o)
 .text.get_or_add_modentry
                0x000126e8       0x24 modutils/lib.a(modprobe.o)
 .text.add_probe
                0x0001270c       0x70 modutils/lib.a(modprobe.o)
 .text.config_file_action
                0x0001277c      0x234 modutils/lib.a(modprobe.o)
 .text.do_modprobe
                0x000129b0      0x354 modutils/lib.a(modprobe.o)
 .text.modprobe_main
                0x00012d04      0x488 modutils/lib.a(modprobe.o)
                0x00012d04                modprobe_main
 .text.replace  0x0001318c       0x1c modutils/lib.a(modutils.o)
                0x0001318c                replace
 .text.string_to_llist
                0x000131a8       0x60 modutils/lib.a(modutils.o)
                0x000131a8                string_to_llist
 .text.filename2modname
                0x00013208       0x78 modutils/lib.a(modutils.o)
                0x00013208                filename2modname
 .text.helper_get_module
                0x00013280       0xa4 modutils/lib.a(modutils.o)
 .text.moddb_get_or_create
                0x00013324        0x8 modutils/lib.a(modutils.o)
                0x00013324                moddb_get_or_create
 .text.moddb_get
                0x0001332c        0x8 modutils/lib.a(modutils.o)
                0x0001332c                moddb_get
 .text.parse_cmdline_module_options
                0x00013334       0xd4 modutils/lib.a(modutils.o)
                0x00013334                parse_cmdline_module_options
 .text.bb_init_module
                0x00013408       0x80 modutils/lib.a(modutils.o)
                0x00013408                bb_init_module
 .text.bb_delete_module
                0x00013488       0x30 modutils/lib.a(modutils.o)
                0x00013488                bb_delete_module
 .text.moderror
                0x000134b8       0x90 modutils/lib.a(modutils.o)
                0x000134b8                moderror
 .text.rmmod_main
                0x00013548       0xe4 modutils/lib.a(rmmod.o)
                0x00013548                rmmod_main
 .text.arp_show
                0x0001362c      0x350 networking/lib.a(arp.o)
 .text.arp_main
                0x0001397c      0x6f0 networking/lib.a(arp.o)
                0x0001397c                arp_main
 .text.ether_wake_main
                0x0001406c      0x32c networking/lib.a(ether-wake.o)
                0x0001406c                ether_wake_main
 .text.ifconfig_main
                0x00014398      0x4d4 networking/lib.a(ifconfig.o)
                0x00014398                ifconfig_main
 .text.get_afntype
                0x0001486c       0x40 networking/lib.a(interface.o)
 .text.add_interface
                0x000148ac       0xa0 networking/lib.a(interface.o)
 .text.if_readconf
                0x0001494c       0xe4 networking/lib.a(interface.o)
 .text.if_readlist_proc
                0x00014a30      0x2e0 networking/lib.a(interface.o)
 .text.do_if_fetch
                0x00014d10      0x308 networking/lib.a(interface.o)
 .text.print_bytes_scaled
                0x00015018       0xa0 networking/lib.a(interface.o)
 .text.UNSPEC_print
                0x000150b8       0x6c networking/lib.a(interface.o)
 .text.UNSPEC_sprint
                0x00015124       0x3c networking/lib.a(interface.o)
 .text.INET6_input
                0x00015160        0x4 networking/lib.a(interface.o)
 .text.INET6_sprint
                0x00015164       0x44 networking/lib.a(interface.o)
 .text.INET_input
                0x000151a8        0x8 networking/lib.a(interface.o)
 .text.INET_sprint
                0x000151b0       0x48 networking/lib.a(interface.o)
 .text.ether_print
                0x000151f8       0x50 networking/lib.a(interface.o)
 .text.get_aftype
                0x00015248       0x50 networking/lib.a(interface.o)
                0x00015248                get_aftype
 .text.get_hwtype
                0x00015298       0x50 networking/lib.a(interface.o)
                0x00015298                get_hwtype
 .text.get_hwntype
                0x000152e8       0x40 networking/lib.a(interface.o)
                0x000152e8                get_hwntype
 .text.ife_print
                0x00015328      0x6b8 networking/lib.a(interface.o)
 .text.display_interfaces
                0x000159e0       0xe8 networking/lib.a(interface.o)
                0x000159e0                display_interfaces
 .text.do_info  0x00015ac8       0x94 networking/lib.a(netstat.o)
 .text.build_ipv4_addr
                0x00015b5c       0x34 networking/lib.a(netstat.o)
 .text.unix_do_one
                0x00015b90      0x2c8 networking/lib.a(netstat.o)
 .text.build_ipv6_addr
                0x00015e58       0x7c networking/lib.a(netstat.o)
 .text.scan_inet_proc_line
                0x00015ed4       0xcc networking/lib.a(netstat.o)
 .text.ip_port_str
                0x00015fa0       0xa8 networking/lib.a(netstat.o)
 .text.print_inet_line
                0x00016048       0xf0 networking/lib.a(netstat.o)
 .text.raw_do_one
                0x00016138       0xa4 networking/lib.a(netstat.o)
 .text.udp_do_one
                0x000161dc       0xdc networking/lib.a(netstat.o)
 .text.tcp_do_one
                0x000162b8       0x7c networking/lib.a(netstat.o)
 .text.netstat_main
                0x00016334      0x2a4 networking/lib.a(netstat.o)
                0x00016334                netstat_main
 .text.set_default_dns
                0x000165d8       0x64 networking/lib.a(nslookup.o)
 .text.print_host
                0x0001663c      0x108 networking/lib.a(nslookup.o)
 .text.nslookup_main
                0x00016744       0xa0 networking/lib.a(nslookup.o)
                0x00016744                nslookup_main
 .text.unpack_tail
                0x000167e4      0x158 networking/lib.a(ping.o)
 .text.print_stats_and_exit
                0x0001693c      0x168 networking/lib.a(ping.o)
 .text.sendping_tail.clone.1
                0x00016aa4      0x134 networking/lib.a(ping.o)
 .text.sendping4
                0x00016bd8       0x8c networking/lib.a(ping.o)
 .text.sendping6
                0x00016c64       0x70 networking/lib.a(ping.o)
 .text.common_ping_main
                0x00016cd4      0xa54 networking/lib.a(ping.o)
 .text.ping_main
                0x00017728        0x8 networking/lib.a(ping.o)
                0x00017728                ping_main
 .text.ping6_main
                0x00017730        0x8 networking/lib.a(ping.o)
                0x00017730                ping6_main
 .text.set_flags
                0x00017738       0x50 networking/lib.a(route.o)
 .text.kw_lookup
                0x00017788       0x84 networking/lib.a(route.o)
 .text.INET6_displayroutes
                0x0001780c      0x250 networking/lib.a(route.o)
 .text.INET6_setroute
                0x00017a5c      0x298 networking/lib.a(route.o)
 .text.INET_setroute
                0x00017cf4      0x3fc networking/lib.a(route.o)
 .text.bb_displayroutes
                0x000180f0      0x244 networking/lib.a(route.o)
                0x000180f0                bb_displayroutes
 .text.route_main
                0x00018334      0x17c networking/lib.a(route.o)
                0x00018334                route_main
 .text.make_new_session
                0x000184b0      0x2fc networking/lib.a(telnetd.o)
 .text.free_session
                0x000187ac       0xc4 networking/lib.a(telnetd.o)
 .text.handle_sigchld
                0x00018870       0x6c networking/lib.a(telnetd.o)
 .text.telnetd_main
                0x000188dc      0x84c networking/lib.a(telnetd.o)
                0x000188dc                telnetd_main
 .text.pr_type  0x00019128       0x90 networking/lib.a(traceroute.o)
 .text.common_traceroute_main
                0x000191b8     0x11f4 networking/lib.a(traceroute.o)
 .text.traceroute_main
                0x0001a3ac        0x8 networking/lib.a(traceroute.o)
                0x0001a3ac                traceroute_main
 .text.traceroute6_main
                0x0001a3b4        0x8 networking/lib.a(traceroute.o)
                0x0001a3b4                traceroute6_main
 .text.xfind_str
                0x0001a3bc       0x40 networking/lib.a(vconfig.o)
 .text.vconfig_main
                0x0001a3fc      0x150 networking/lib.a(vconfig.o)
                0x0001a3fc                vconfig_main
 .text.send_arp_request
                0x0001a54c       0xfc networking/lib.a(zcip.o)
 .text.run      0x0001a648       0xdc networking/lib.a(zcip.o)
 .text.cleanup  0x0001a724       0x34 networking/lib.a(zcip.o)
 .text.zcip_shutdown
                0x0001a758       0x14 networking/lib.a(zcip.o)
 .text.zcip_main
                0x0001a76c      0x690 networking/lib.a(zcip.o)
                0x0001a76c                zcip_main
 .text.alloc_dhcp_option
                0x0001adfc       0x54 networking/udhcp/lib.a(dhcpc.o)
 .text.init_packet
                0x0001ae50       0xb0 networking/udhcp/lib.a(dhcpc.o)
 .text.add_client_options
                0x0001af00      0x174 networking/udhcp/lib.a(dhcpc.o)
 .text.raw_bcast_from_client_config_ifindex
                0x0001b074       0x50 networking/udhcp/lib.a(dhcpc.o)
 .text.send_discover
                0x0001b0c4       0x8c networking/udhcp/lib.a(dhcpc.o)
 .text.send_select
                0x0001b150       0x94 networking/udhcp/lib.a(dhcpc.o)
 .text.send_decline
                0x0001b1e4       0x84 networking/udhcp/lib.a(dhcpc.o)
 .text.bcast_or_ucast
                0x0001b268       0x30 networking/udhcp/lib.a(dhcpc.o)
 .text.send_renew
                0x0001b298       0x7c networking/udhcp/lib.a(dhcpc.o)
 .text.send_release
                0x0001b314       0x7c networking/udhcp/lib.a(dhcpc.o)
 .text.udhcp_recv_raw_packet
                0x0001b390      0x258 networking/udhcp/lib.a(dhcpc.o)
 .text.client_background
                0x0001b5e8       0x44 networking/udhcp/lib.a(dhcpc.o)
 .text.sprint_nip
                0x0001b62c       0x4c networking/udhcp/lib.a(dhcpc.o)
 .text.change_listen_mode
                0x0001b678       0xf8 networking/udhcp/lib.a(dhcpc.o)
 .text.xmalloc_optname_optval.clone.0
                0x0001b770      0x390 networking/udhcp/lib.a(dhcpc.o)
 .text.udhcp_run_script
                0x0001bb00      0x3bc networking/udhcp/lib.a(dhcpc.o)
 .text.perform_release
                0x0001bebc       0xb4 networking/udhcp/lib.a(dhcpc.o)
 .text.udhcpc_main
                0x0001bf70      0xcbc networking/udhcp/lib.a(dhcpc.o)
                0x0001bf70                udhcpc_main
 .text.udhcp_init_header
                0x0001cc2c       0x84 networking/udhcp/lib.a(packet.o)
                0x0001cc2c                udhcp_init_header
 .text.udhcp_recv_kernel_packet
                0x0001ccb0       0x88 networking/udhcp/lib.a(packet.o)
                0x0001ccb0                udhcp_recv_kernel_packet
 .text.udhcp_send_raw_packet
                0x0001cd38      0x294 networking/udhcp/lib.a(packet.o)
                0x0001cd38                udhcp_send_raw_packet
 .text.udhcp_send_kernel_packet
                0x0001cfcc      0x164 networking/udhcp/lib.a(packet.o)
                0x0001cfcc                udhcp_send_kernel_packet
 .text.signal_handler
                0x0001d130       0x4c networking/udhcp/lib.a(signalpipe.o)
 .text.udhcp_sp_setup
                0x0001d17c       0x54 networking/udhcp/lib.a(signalpipe.o)
                0x0001d17c                udhcp_sp_setup
 .text.udhcp_sp_fd_set
                0x0001d1d0       0x90 networking/udhcp/lib.a(signalpipe.o)
                0x0001d1d0                udhcp_sp_fd_set
 .text.udhcp_sp_read
                0x0001d260       0x54 networking/udhcp/lib.a(signalpipe.o)
                0x0001d260                udhcp_sp_read
 .text.udhcp_read_interface
                0x0001d2b4      0x164 networking/udhcp/lib.a(socket.o)
                0x0001d2b4                udhcp_read_interface
 .text.udhcp_listen_socket
                0x0001d418       0xd4 networking/udhcp/lib.a(socket.o)
                0x0001d418                udhcp_listen_socket
 .text.arpping  0x0001d4ec      0x220 networking/udhcp/lib.a(arpping.o)
                0x0001d4ec                arpping
 .text.udhcp_option_idx
                0x0001d70c       0x80 networking/udhcp/lib.a(common.o)
                0x0001d70c                udhcp_option_idx
 .text.udhcp_get_option
                0x0001d78c       0xdc networking/udhcp/lib.a(common.o)
                0x0001d78c                udhcp_get_option
 .text.udhcp_end_option
                0x0001d868       0x34 networking/udhcp/lib.a(common.o)
                0x0001d868                udhcp_end_option
 .text.udhcp_add_binary_option
                0x0001d89c       0x70 networking/udhcp/lib.a(common.o)
                0x0001d89c                udhcp_add_binary_option
 .text.udhcp_add_simple_option
                0x0001d90c       0xa0 networking/udhcp/lib.a(common.o)
                0x0001d90c                udhcp_add_simple_option
 .text.udhcp_find_option
                0x0001d9ac       0x28 networking/udhcp/lib.a(common.o)
                0x0001d9ac                udhcp_find_option
 .text.attach_option
                0x0001d9d4      0x188 networking/udhcp/lib.a(common.o)
 .text.udhcp_str2nip
                0x0001db5c       0x48 networking/udhcp/lib.a(common.o)
                0x0001db5c                udhcp_str2nip
 .text.udhcp_str2optset
                0x0001dba4      0x2e0 networking/udhcp/lib.a(common.o)
                0x0001dba4                udhcp_str2optset
 .text.sprint_nip6
                0x0001de84       0x7c networking/udhcp/lib.a(common.o)
                0x0001de84                sprint_nip6
 .text.scale    0x0001df00       0x30 procps/lib.a(free.o)
 .text.free_main
                0x0001df30      0x268 procps/lib.a(free.o)
                0x0001df30                free_main
 .text.kill_main
                0x0001e198      0x370 procps/lib.a(kill.o)
                0x0001e198                kill_main
 .text.pidof_main
                0x0001e508       0xa8 procps/lib.a(pidof.o)
                0x0001e508                pidof_main
 .text.ps_main  0x0001e5b0      0x160 procps/lib.a(ps.o)
                0x0001e5b0                ps_main
 .text.renice_main
                0x0001e710      0x1e0 procps/lib.a(renice.o)
                0x0001e710                renice_main
 .text.pid_sort
                0x0001e8f0       0x10 procps/lib.a(top.o)
 .text.mem_sort
                0x0001e900       0x24 procps/lib.a(top.o)
 .text.pcpu_sort
                0x0001e924       0x10 procps/lib.a(top.o)
 .text.time_sort
                0x0001e934       0x24 procps/lib.a(top.o)
 .text.mult_lvl_cmp
                0x0001e958       0x5c procps/lib.a(top.o)
 .text.topmem_sort
                0x0001e9b4       0x58 procps/lib.a(top.o)
 .text.reset_term
                0x0001ea0c       0x34 procps/lib.a(top.o)
 .text.fmt_100percent_8
                0x0001ea40       0xcc procps/lib.a(top.o)
 .text.read_cpu_jiffy
                0x0001eb0c      0x11c procps/lib.a(top.o)
 .text.get_jiffy_counts
                0x0001ec28      0x140 procps/lib.a(top.o)
 .text.do_stats
                0x0001ed68      0x10c procps/lib.a(top.o)
 .text.parse_meminfo
                0x0001ee74       0xb8 procps/lib.a(top.o)
 .text.display_process_list
                0x0001ef2c      0x618 procps/lib.a(top.o)
 .text.ulltoa6_and_space
                0x0001f544       0x2c procps/lib.a(top.o)
 .text.display_topmem_process_list
                0x0001f570      0x300 procps/lib.a(top.o)
 .text.clearmems
                0x0001f870       0x34 procps/lib.a(top.o)
 .text.handle_input
                0x0001f8a4      0x2cc procps/lib.a(top.o)
 .text.sig_catcher
                0x0001fb70       0x14 procps/lib.a(top.o)
 .text.top_main
                0x0001fb84      0x4e8 procps/lib.a(top.o)
                0x0001fb84                top_main
 .text.uptime_main
                0x0002006c      0x15c procps/lib.a(uptime.o)
                0x0002006c                uptime_main
 .text.watch_main
                0x000201c8      0x14c procps/lib.a(watch.o)
                0x000201c8                watch_main
 .text.isdigit_str9
                0x00020314       0x34 shell/lib.a(ash.o)
 .text.var_end  0x00020348       0x28 shell/lib.a(ash.o)
 .text.stunalloc
                0x00020370       0x38 shell/lib.a(ash.o)
 .text.setstackmark
                0x000203a8       0x44 shell/lib.a(ash.o)
 .text.prefix   0x000203ec       0x34 shell/lib.a(ash.o)
 .text.is_number
                0x00020420       0x38 shell/lib.a(ash.o)
 .text.varcmp   0x00020458       0x48 shell/lib.a(ash.o)
 .text.hashvar  0x000204a0       0x58 shell/lib.a(ash.o)
 .text.vpcmp    0x000204f8        0xc shell/lib.a(ash.o)
 .text.findvar  0x00020504       0x3c shell/lib.a(ash.o)
 .text.lookupvar
                0x00020540       0x40 shell/lib.a(ash.o)
 .text.bltinlookup
                0x00020580       0x60 shell/lib.a(ash.o)
 .text.setprompt_if
                0x000205e0       0x8c shell/lib.a(ash.o)
 .text.set_curjob
                0x0002066c       0x4c shell/lib.a(ash.o)
 .text.getstatus
                0x000206b8       0x6c shell/lib.a(ash.o)
 .text.need_to_remember
                0x00020724       0x40 shell/lib.a(ash.o)
 .text.is_hidden_fd
                0x00020764       0x8c shell/lib.a(ash.o)
 .text.esclen   0x000207f0       0x28 shell/lib.a(ash.o)
 .text.falsecmd
                0x00020818        0x8 shell/lib.a(ash.o)
 .text.truecmd  0x00020820        0x8 shell/lib.a(ash.o)
 .text.bltincmd
                0x00020828       0x1c shell/lib.a(ash.o)
 .text.pungetc  0x00020844       0x34 shell/lib.a(ash.o)
 .text.raise_exception
                0x00020878       0x3c shell/lib.a(ash.o)
 .text.calcsize
                0x000208b4      0x144 shell/lib.a(ash.o)
 .text.sizenodelist
                0x000209f8       0x48 shell/lib.a(ash.o)
 .text.SIT      0x00020a40       0xac shell/lib.a(ash.o)
 .text.pushfile
                0x00020aec       0x38 shell/lib.a(ash.o)
 .text.goodname
                0x00020b24       0x18 shell/lib.a(ash.o)
 .text.isassignment
                0x00020b3c       0x30 shell/lib.a(ash.o)
 .text.freealias
                0x00020b6c       0x44 shell/lib.a(ash.o)
 .text.freefunc
                0x00020bb0       0x20 shell/lib.a(ash.o)
 .text.freeparam
                0x00020bd0       0x38 shell/lib.a(ash.o)
 .text.setparam
                0x00020c08       0x8c shell/lib.a(ash.o)
 .text.scanright
                0x00020c94       0x9c shell/lib.a(ash.o)
 .text.scanleft
                0x00020d30       0x78 shell/lib.a(ash.o)
 .text.__lookupalias
                0x00020da8       0x7c shell/lib.a(ash.o)
 .text.lookupalias
                0x00020e24       0x2c shell/lib.a(ash.o)
 .text.msort    0x00020e50       0xbc shell/lib.a(ash.o)
 .text.pstrcmp  0x00020f0c        0xc shell/lib.a(ash.o)
 .text.ignoresig
                0x00020f18       0x54 shell/lib.a(ash.o)
 .text.setsignal
                0x00020f6c      0x188 shell/lib.a(ash.o)
 .text.optschanged
                0x000210f4       0x64 shell/lib.a(ash.o)
 .text.nodeckstrdup
                0x00021158       0x48 shell/lib.a(ash.o)
 .text.copynode
                0x000211a0      0x16c shell/lib.a(ash.o)
 .text.copynodelist
                0x0002130c       0x60 shell/lib.a(ash.o)
 .text.cmdlookup
                0x0002136c       0xdc shell/lib.a(ash.o)
 .text.errmsg   0x00021448       0x18 shell/lib.a(ash.o)
 .text.find_builtin
                0x00021460       0x3c shell/lib.a(ash.o)
 .text.findkwd  0x0002149c       0x40 shell/lib.a(ash.o)
 .text.ulimitcmd
                0x000214dc        0x8 shell/lib.a(ash.o)
 .text.historycmd
                0x000214e4       0x28 shell/lib.a(ash.o)
 .text.tryexec  0x0002150c       0xc4 shell/lib.a(ash.o)
 .text.tokname  0x000215d0       0x54 shell/lib.a(ash.o)
 .text.raise_interrupt
                0x00021624       0x84 shell/lib.a(ash.o)
 .text.int_on   0x000216a8       0x48 shell/lib.a(ash.o)
 .text.recordregion
                0x000216f0       0x88 shell/lib.a(ash.o)
 .text.fmtstr   0x00021778       0x5c shell/lib.a(ash.o)
 .text.removerecordregions
                0x000217d4      0x12c shell/lib.a(ash.o)
 .text.freejob  0x00021900       0x98 shell/lib.a(ash.o)
 .text.makejob  0x00021998      0x194 shell/lib.a(ash.o)
 .text.unalias  0x00021b2c       0x60 shell/lib.a(ash.o)
 .text.popstring
                0x00021b8c       0xe8 shell/lib.a(ash.o)
 .text.popfile  0x00021c74       0x80 shell/lib.a(ash.o)
 .text.popallfiles
                0x00021cf4       0x40 shell/lib.a(ash.o)
 .text.outstr   0x00021d34       0x38 shell/lib.a(ash.o)
 .text.out1str  0x00021d6c       0x20 shell/lib.a(ash.o)
 .text.flush_stdout_stderr
                0x00021d8c       0x38 shell/lib.a(ash.o)
 .text.out2str  0x00021dc4       0x2c shell/lib.a(ash.o)
 .text.stoppedjobs
                0x00021df0       0x78 shell/lib.a(ash.o)
 .text.popstackmark
                0x00021e68       0x98 shell/lib.a(ash.o)
 .text.newline_and_flush
                0x00021f00       0x4c shell/lib.a(ash.o)
 .text.ash_vmsg
                0x00021f4c       0xf8 shell/lib.a(ash.o)
 .text.ash_vmsg_and_raise
                0x00022044       0x20 shell/lib.a(ash.o)
 .text.ash_msg_and_raise_error
                0x00022064       0x1c shell/lib.a(ash.o)
 .text.varunset
                0x00022080       0x8c shell/lib.a(ash.o)
 .text.setvareq
                0x0002210c      0x11c shell/lib.a(ash.o)
 .text.number   0x00022228       0x40 shell/lib.a(ash.o)
 .text.returncmd
                0x00022268       0x50 shell/lib.a(ash.o)
 .text.exitcmd  0x000222b8       0x4c shell/lib.a(ash.o)
 .text.copyfd   0x00022304       0x6c shell/lib.a(ash.o)
 .text.raise_error_syntax
                0x00022370       0x24 shell/lib.a(ash.o)
 .text.raise_error_unexpected_syntax
                0x00022394       0x80 shell/lib.a(ash.o)
 .text.nextopt  0x00022414      0x130 shell/lib.a(ash.o)
 .text.cdopt    0x00022544       0x4c shell/lib.a(ash.o)
 .text.breakcmd
                0x00022590       0x9c shell/lib.a(ash.o)
 .text.ash_msg_and_raise
                0x0002262c       0x18 shell/lib.a(ash.o)
 .text.ash_msg  0x00022644       0x24 shell/lib.a(ash.o)
 .text.setvar   0x00022668       0xfc shell/lib.a(ash.o)
 .text.setvar0  0x00022764        0x8 shell/lib.a(ash.o)
 .text.ash_arith
                0x0002276c       0x7c shell/lib.a(ash.o)
 .text.letcmd   0x000227e8       0x50 shell/lib.a(ash.o)
 .text.stalloc  0x00022838       0xc8 shell/lib.a(ash.o)
 .text.ststrdup
                0x00022900       0x28 shell/lib.a(ash.o)
 .text.stzalloc
                0x00022928       0x1c shell/lib.a(ash.o)
 .text.addfname
                0x00022944       0x48 shell/lib.a(ash.o)
 .text.expmeta  0x0002298c      0x2e0 shell/lib.a(ash.o)
 .text.makename
                0x00022c6c       0x44 shell/lib.a(ash.o)
 .text.fixredir
                0x00022cb0       0x94 shell/lib.a(ash.o)
 .text.growstackblock
                0x00022d44      0x12c shell/lib.a(ash.o)
 .text.makestrspace
                0x00022e70       0x50 shell/lib.a(ash.o)
 .text.memtodest
                0x00022ec0       0xe4 shell/lib.a(ash.o)
 .text.strtodest
                0x00022fa4       0x34 shell/lib.a(ash.o)
 .text.stack_nputstr
                0x00022fd8       0x2c shell/lib.a(ash.o)
 .text.stack_putstr
                0x00023004       0x24 shell/lib.a(ash.o)
 .text.cvtnum   0x00023028       0x54 shell/lib.a(ash.o)
 .text.varvalue
                0x0002307c      0x37c shell/lib.a(ash.o)
 .text.single_quote
                0x000233f8       0xdc shell/lib.a(ash.o)
 .text.rmescapes
                0x000234d4      0x194 shell/lib.a(ash.o)
 .text.preglob  0x00023668        0x8 shell/lib.a(ash.o)
 .text.growstackstr
                0x00023670       0x68 shell/lib.a(ash.o)
 .text._STPUTC  0x000236d8       0x40 shell/lib.a(ash.o)
 .text.listvars
                0x00023718       0xbc shell/lib.a(ash.o)
 .text.path_advance
                0x000237d4      0x120 shell/lib.a(ash.o)
 .text.popredir
                0x000238f4      0x10c shell/lib.a(ash.o)
 .text.clearredir
                0x00023a00       0x48 shell/lib.a(ash.o)
 .text.shellexec
                0x00023a48      0x144 shell/lib.a(ash.o)
 .text.execcmd  0x00023b8c       0x6c shell/lib.a(ash.o)
 .text.setinputstring
                0x00023bf8       0x68 shell/lib.a(ash.o)
 .text.pushstring
                0x00023c60       0xb0 shell/lib.a(ash.o)
 .text.unsetvar
                0x00023d10       0xc0 shell/lib.a(ash.o)
 .text.delete_cmd_entry
                0x00023dd0       0x68 shell/lib.a(ash.o)
 .text.unsetcmd
                0x00023e38       0xa0 shell/lib.a(ash.o)
 .text.unaliascmd
                0x00023ed8      0x12c shell/lib.a(ash.o)
 .text.out1fmt  0x00024004       0x58 shell/lib.a(ash.o)
 .text.printalias
                0x0002405c       0x38 shell/lib.a(ash.o)
 .text.timescmd
                0x00024094       0xc4 shell/lib.a(ash.o)
 .text.showvars
                0x00024158       0xe4 shell/lib.a(ash.o)
 .text.exportcmd
                0x0002423c       0xf4 shell/lib.a(ash.o)
 .text.options  0x00024330      0x36c shell/lib.a(ash.o)
 .text.umaskcmd
                0x0002469c      0x188 shell/lib.a(ash.o)
 .text.setinputfile
                0x00024824      0x10c shell/lib.a(ash.o)
 .text.trapcmd  0x00024930      0x174 shell/lib.a(ash.o)
 .text.shiftcmd
                0x00024aa4       0xc0 shell/lib.a(ash.o)
 .text.setcmd   0x00024b64       0x8c shell/lib.a(ash.o)
 .text.readcmd  0x00024bf0      0x130 shell/lib.a(ash.o)
 .text.setpwd   0x00024d20      0x114 shell/lib.a(ash.o)
 .text.pwdcmd   0x00024e34       0x6c shell/lib.a(ash.o)
 .text.localcmd
                0x00024ea0      0x1cc shell/lib.a(ash.o)
 .text.clearcmdentry
                0x0002506c       0xac shell/lib.a(ash.o)
 .text.changepath
                0x00025118      0x12c shell/lib.a(ash.o)
 .text.cdcmd    0x00025244      0x3f0 shell/lib.a(ash.o)
 .text.aliascmd
                0x00025634      0x1a4 shell/lib.a(ash.o)
 .text.listsetvar
                0x000257d8       0x58 shell/lib.a(ash.o)
 .text.signal_handler
                0x00025830       0x60 shell/lib.a(ash.o)
 .text.force_int_on
                0x00025890       0x38 shell/lib.a(ash.o)
 .text.forkchild.clone.0
                0x000258c8      0x230 shell/lib.a(ash.o)
 .text.evalbltin.clone.2
                0x00025af8      0x128 shell/lib.a(ash.o)
 .text.dowait   0x00025c20      0x190 shell/lib.a(ash.o)
 .text.forkshell
                0x00025db0      0x114 shell/lib.a(ash.o)
 .text.blocking_wait_with_raise_on_sig
                0x00025ec4       0x48 shell/lib.a(ash.o)
 .text.waitcmd  0x00025f0c      0x2b8 shell/lib.a(ash.o)
 .text.waitforjob
                0x000261c4       0x68 shell/lib.a(ash.o)
 .text.readtoken1
                0x0002622c      0xe64 shell/lib.a(ash.o)
 .text.parseheredoc
                0x00027090       0xb4 shell/lib.a(ash.o)
 .text.list     0x00027144      0x1bc shell/lib.a(ash.o)
 .text.parsecmd
                0x00027300       0x64 shell/lib.a(ash.o)
 .text.evalstring
                0x00027364       0x7c shell/lib.a(ash.o)
 .text.evaltree
                0x000273e0      0x4cc shell/lib.a(ash.o)
 .text.argstr   0x000278ac      0x62c shell/lib.a(ash.o)
 .text.expandarg
                0x00027ed8      0x4d8 shell/lib.a(ash.o)
 .text.expredir
                0x000283b0       0xfc shell/lib.a(ash.o)
 .text.redirect
                0x000284ac      0x5ec shell/lib.a(ash.o)
 .text.redirectsafe
                0x00028a98       0xd8 shell/lib.a(ash.o)
 .text.evalsubshell
                0x00028b70       0xe4 shell/lib.a(ash.o)
 .text.subevalvar
                0x00028c54      0x600 shell/lib.a(ash.o)
 .text.evalvar  0x00029254      0x2e4 shell/lib.a(ash.o)
 .text.evalcase
                0x00029538      0x190 shell/lib.a(ash.o)
 .text.evalloop
                0x000296c8      0x11c shell/lib.a(ash.o)
 .text.evalfor  0x000297e4      0x154 shell/lib.a(ash.o)
 .text.evalfun  0x00029938      0x25c shell/lib.a(ash.o)
 .text.exitshell
                0x00029b94       0xa4 shell/lib.a(ash.o)
 .text.pgetc    0x00029c38      0x320 shell/lib.a(ash.o)
 .text.pgetc_without_PEOA
                0x00029f58       0x18 shell/lib.a(ash.o)
 .text.xxreadtoken
                0x00029f70      0x1dc shell/lib.a(ash.o)
 .text.readtoken
                0x0002a14c      0x104 shell/lib.a(ash.o)
 .text.peektoken
                0x0002a250       0x28 shell/lib.a(ash.o)
 .text.parsefname
                0x0002a278      0x15c shell/lib.a(ash.o)
 .text.parse_command
                0x0002a3d4      0x858 shell/lib.a(ash.o)
 .text.pipeline
                0x0002ac2c       0xf8 shell/lib.a(ash.o)
 .text.evalcmd  0x0002ad24       0x9c shell/lib.a(ash.o)
 .text.cmdloop  0x0002adc0      0x114 shell/lib.a(ash.o)
 .text.find_command
                0x0002aed4      0x470 shell/lib.a(ash.o)
 .text.hashcmd  0x0002b344      0x1d4 shell/lib.a(ash.o)
 .text.evalpipe
                0x0002b518      0x1e4 shell/lib.a(ash.o)
 .text.evalcommand
                0x0002b6fc      0x574 shell/lib.a(ash.o)
 .text.typecmd  0x0002bc70      0x2a0 shell/lib.a(ash.o)
 .text.dotcmd   0x0002bf10      0x17c shell/lib.a(ash.o)
 .text.read_profile
                0x0002c08c       0x30 shell/lib.a(ash.o)
 .text.ash_main
                0x0002c0bc      0x798 shell/lib.a(ash.o)
                0x0002c0bc                ash_main
 .text.arith_apply
                0x0002c854      0x3bc shell/lib.a(math.o)
 .text.evaluate_string
                0x0002cc10      0x354 shell/lib.a(math.o)
 .text.arith_lookup_val
                0x0002cf64       0xac shell/lib.a(math.o)
 .text.arith    0x0002d010       0x10 shell/lib.a(math.o)
                0x0002d010                arith
 .text.printlim.clone.0
                0x0002d020       0x78 shell/lib.a(shell_common.o)
 .text.is_well_formed_var_name
                0x0002d098       0x70 shell/lib.a(shell_common.o)
                0x0002d098                is_well_formed_var_name
 .text.shell_builtin_read
                0x0002d108      0x56c shell/lib.a(shell_common.o)
                0x0002d108                shell_builtin_read
 .text.shell_builtin_ulimit
                0x0002d674      0x24c shell/lib.a(shell_common.o)
                0x0002d674                shell_builtin_ulimit
 .text.klogd_main
                0x0002d8c0      0x33c sysklogd/lib.a(klogd.o)
                0x0002d8c0                klogd_main
 .text.find_by_val
                0x0002dbfc       0x30 sysklogd/lib.a(syslogd_and_logger.o)
 .text.decode   0x0002dc2c       0x58 sysklogd/lib.a(syslogd_and_logger.o)
 .text.reset_dns_wait
                0x0002dc84       0x44 sysklogd/lib.a(syslogd_and_logger.o)
 .text.create_socket
                0x0002dcc8       0xb8 sysklogd/lib.a(syslogd_and_logger.o)
 .text.log_locally
                0x0002dd80      0x21c sysklogd/lib.a(syslogd_and_logger.o)
 .text.timestamp_and_log
                0x0002df9c      0x1b8 sysklogd/lib.a(syslogd_and_logger.o)
 .text.timestamp_and_log_internal
                0x0002e154       0x30 sysklogd/lib.a(syslogd_and_logger.o)
 .text.syslogd_main
                0x0002e184      0x7a8 sysklogd/lib.a(syslogd_and_logger.o)
                0x0002e184                syslogd_main
 .text.logger_main
                0x0002e92c      0x348 sysklogd/lib.a(syslogd_and_logger.o)
                0x0002e92c                logger_main
 .text.blkid_main
                0x0002ec74       0x34 util-linux/lib.a(blkid.o)
                0x0002ec74                blkid_main
 .text.dmesg_main
                0x0002eca8      0x18c util-linux/lib.a(dmesg.o)
                0x0002eca8                dmesg_main
 .text.str_units
                0x0002ee34       0x74 util-linux/lib.a(fdisk.o)
 .text.valid_part_table_flag
                0x0002eea8       0x28 util-linux/lib.a(fdisk.o)
 .text.get_sys_types
                0x0002eed0       0x1c util-linux/lib.a(fdisk.o)
 .text.partition_type
                0x0002eeec       0x4c util-linux/lib.a(fdisk.o)
 .text.is_cleared_partition
                0x0002ef38       0x28 util-linux/lib.a(fdisk.o)
 .text.update_units
                0x0002ef60       0x4c util-linux/lib.a(fdisk.o)
 .text.linear2chs
                0x0002efac       0x7c util-linux/lib.a(fdisk.o)
 .text.close_dev_fd
                0x0002f028       0x30 util-linux/lib.a(fdisk.o)
 .text.list_disk_geometry
                0x0002f058      0x120 util-linux/lib.a(fdisk.o)
 .text.list_types
                0x0002f178       0xe0 util-linux/lib.a(fdisk.o)
 .text.unknown_command
                0x0002f258       0x20 util-linux/lib.a(fdisk.o)
 .text.warn_geometry
                0x0002f278       0xc4 util-linux/lib.a(fdisk.o)
 .text.menu     0x0002f33c      0x104 util-linux/lib.a(fdisk.o)
 .text.fdisk_fatal
                0x0002f440       0x40 util-linux/lib.a(fdisk.o)
 .text.seek_sector
                0x0002f480       0x6c util-linux/lib.a(fdisk.o)
 .text.clear_partition
                0x0002f4ec       0x14 util-linux/lib.a(fdisk.o)
 .text.get_start_sect
                0x0002f500       0x1c util-linux/lib.a(fdisk.o)
 .text.get_partition_start_from_dev_start
                0x0002f51c       0x18 util-linux/lib.a(fdisk.o)
 .text.get_nr_sects
                0x0002f534       0x1c util-linux/lib.a(fdisk.o)
 .text.fill_bounds
                0x0002f550       0xc4 util-linux/lib.a(fdisk.o)
 .text.check_consistency
                0x0002f614      0x210 util-linux/lib.a(fdisk.o)
 .text.set_nr_sects
                0x0002f824       0x20 util-linux/lib.a(fdisk.o)
 .text.set_start_sect
                0x0002f844       0x20 util-linux/lib.a(fdisk.o)
 .text.delete_partition
                0x0002f864      0x1e8 util-linux/lib.a(fdisk.o)
 .text.set_partition
                0x0002fa4c      0x1a0 util-linux/lib.a(fdisk.o)
 .text.read_line
                0x0002fbec       0x8c util-linux/lib.a(fdisk.o)
 .text.read_nonempty
                0x0002fc78       0x3c util-linux/lib.a(fdisk.o)
 .text.verify   0x0002fcb4      0x480 util-linux/lib.a(fdisk.o)
 .text.get_boot
                0x00030134      0x7ac util-linux/lib.a(fdisk.o)
 .text.create_doslabel
                0x000308e0       0x9c util-linux/lib.a(fdisk.o)
 .text.read_int
                0x0003097c      0x2cc util-linux/lib.a(fdisk.o)
 .text.get_partition
                0x00030c48       0x84 util-linux/lib.a(fdisk.o)
 .text.get_existing_partition
                0x00030ccc       0xbc util-linux/lib.a(fdisk.o)
 .text.add_partition
                0x00030d88      0x5e8 util-linux/lib.a(fdisk.o)
 .text.add_logical
                0x00031370       0x90 util-linux/lib.a(fdisk.o)
 .text.get_nonexisting_partition.clone.4
                0x00031400       0xa8 util-linux/lib.a(fdisk.o)
 .text.list_table.clone.0
                0x000314a8      0x3d0 util-linux/lib.a(fdisk.o)
 .text.open_list_and_close
                0x00031878      0x1f8 util-linux/lib.a(fdisk.o)
 .text.list_devs_in_proc_partititons
                0x00031a70      0x164 util-linux/lib.a(fdisk.o)
 .text.fdisk_main
                0x00031bd4      0x730 util-linux/lib.a(fdisk.o)
                0x00031bd4                fdisk_main
 .text.flock_main
                0x00032304      0x1e4 util-linux/lib.a(flock.o)
                0x00032304                flock_main
 .text.minix_bit
                0x000324e8       0x14 util-linux/lib.a(fsck_minix.o)
 .text.minix_setbit
                0x000324fc       0x38 util-linux/lib.a(fsck_minix.o)
 .text.minix_clrbit
                0x00032534       0x38 util-linux/lib.a(fsck_minix.o)
 .text.pop_filename
                0x0003256c       0x5c util-linux/lib.a(fsck_minix.o)
 .text.ask      0x000325c8      0x12c util-linux/lib.a(fsck_minix.o)
 .text.check_zone_nr
                0x000326f4       0xb4 util-linux/lib.a(fsck_minix.o)
 .text.add_zone
                0x000327a8      0x12c util-linux/lib.a(fsck_minix.o)
 .text.die      0x000328d4       0x48 util-linux/lib.a(fsck_minix.o)
 .text.bad_zone
                0x0003291c       0x48 util-linux/lib.a(fsck_minix.o)
 .text.read_block
                0x00032964       0xb0 util-linux/lib.a(fsck_minix.o)
 .text.get_dirsize
                0x00032a14       0x80 util-linux/lib.a(fsck_minix.o)
 .text.write_block
                0x00032a94       0xb8 util-linux/lib.a(fsck_minix.o)
 .text.add_zone_ind
                0x00032b4c       0x80 util-linux/lib.a(fsck_minix.o)
 .text.check_zones
                0x00032bcc      0x110 util-linux/lib.a(fsck_minix.o)
 .text.map_block
                0x00032cdc      0x114 util-linux/lib.a(fsck_minix.o)
 .text.write_superblock
                0x00032df0       0x80 util-linux/lib.a(fsck_minix.o)
 .text.push_filename
                0x00032e70       0x74 util-linux/lib.a(fsck_minix.o)
 .text.recursive_check
                0x00032ee4      0x494 util-linux/lib.a(fsck_minix.o)
 .text.fsck_minix_main
                0x00033378      0xa1c util-linux/lib.a(fsck_minix.o)
                0x00033378                fsck_minix_main
 .text.fileAction
                0x00033d94      0x1b0 util-linux/lib.a(lsusb.o)
 .text.lsusb_main
                0x00033f44       0x48 util-linux/lib.a(lsusb.o)
                0x00033f44                lsusb_main
 .text.dirAction
                0x00033f8c       0x10 util-linux/lib.a(mdev.o)
 .text.make_device
                0x00033f9c      0x31c util-linux/lib.a(mdev.o)
 .text.curtime  0x000342b8       0x5c util-linux/lib.a(mdev.o)
 .text.fileAction
                0x00034314      0x174 util-linux/lib.a(mdev.o)
 .text.mdev_main
                0x00034488      0x610 util-linux/lib.a(mdev.o)
                0x00034488                mdev_main
 .text.mkswap_main
                0x00034a98      0x1a8 util-linux/lib.a(mkswap.o)
                0x00034a98                mkswap_main
 .text.gotsig   0x00034c40       0x3c util-linux/lib.a(more.o)
 .text.more_main
                0x00034c7c      0x3e4 util-linux/lib.a(more.o)
                0x00034c7c                more_main
 .text.parse_mount_options
                0x00035060      0x144 util-linux/lib.a(mount.o)
 .text.append_mount_options
                0x000351a4      0x104 util-linux/lib.a(mount.o)
 .text.mount_it_now
                0x000352a8      0x190 util-linux/lib.a(mount.o)
 .text.singlemount
                0x00035438      0x5fc util-linux/lib.a(mount.o)
 .text.mount_main
                0x00035a34      0x5c4 util-linux/lib.a(mount.o)
                0x00035a34                mount_main
 .text.swap_enable_disable
                0x00035ff8      0x128 util-linux/lib.a(swaponoff.o)
 .text.swap_on_off_main
                0x00036120      0x1b4 util-linux/lib.a(swaponoff.o)
                0x00036120                swap_on_off_main
 .text.umount_main
                0x000362d4      0x2f0 util-linux/lib.a(umount.o)
                0x000362d4                umount_main
 .text.uuidcache_init
                0x000365c4       0x64 util-linux/volume_id/lib.a(get_devname.o)
 .text.display_uuid_cache
                0x00036628       0x94 util-linux/volume_id/lib.a(get_devname.o)
                0x00036628                display_uuid_cache
 .text.add_to_uuid_cache
                0x000366bc      0x120 util-linux/volume_id/lib.a(get_devname.o)
                0x000366bc                add_to_uuid_cache
 .text.uuidcache_check_device
                0x000367dc       0x40 util-linux/volume_id/lib.a(get_devname.o)
 .text.get_devname_from_label
                0x0003681c       0x58 util-linux/volume_id/lib.a(get_devname.o)
                0x0003681c                get_devname_from_label
 .text.get_devname_from_uuid
                0x00036874       0x4c util-linux/volume_id/lib.a(get_devname.o)
                0x00036874                get_devname_from_uuid
 .text.resolve_mount_spec
                0x000368c0       0x94 util-linux/volume_id/lib.a(get_devname.o)
                0x000368c0                resolve_mount_spec
 .text.volume_id_probe_all
                0x00036954       0x94 util-linux/volume_id/lib.a(volume_id.o)
                0x00036954                volume_id_probe_all
 .text.volume_id_open_node
                0x000369e8       0x18 util-linux/volume_id/lib.a(volume_id.o)
                0x000369e8                volume_id_open_node
 .text.free_volume_id
                0x00036a00       0x28 util-linux/volume_id/lib.a(volume_id.o)
                0x00036a00                free_volume_id
 .text.volume_id_probe_ext
                0x00036a28       0x64 util-linux/volume_id/lib.a(ext.o)
                0x00036a28                volume_id_probe_ext
 .text.get_attr_volume_id
                0x00036a8c       0x70 util-linux/volume_id/lib.a(fat.o)
 .text.volume_id_probe_vfat
                0x00036afc      0x45c util-linux/volume_id/lib.a(fat.o)
                0x00036afc                volume_id_probe_vfat
 .text.hfs_set_uuid
                0x00036f58       0xbc util-linux/volume_id/lib.a(hfs.o)
 .text.volume_id_probe_hfs_hfsplus
                0x00037014      0x31c util-linux/volume_id/lib.a(hfs.o)
                0x00037014                volume_id_probe_hfs_hfsplus
 .text.volume_id_probe_linux_swap
                0x00037330      0x170 util-linux/volume_id/lib.a(linux_swap.o)
                0x00037330                volume_id_probe_linux_swap
 .text.volume_id_probe_ntfs
                0x000374a0      0x1c8 util-linux/volume_id/lib.a(ntfs.o)
                0x000374a0                volume_id_probe_ntfs
 .text.volume_id_set_unicode16
                0x00037668       0xc4 util-linux/volume_id/lib.a(util.o)
                0x00037668                volume_id_set_unicode16
 .text.volume_id_set_label_string
                0x0003772c       0x68 util-linux/volume_id/lib.a(util.o)
                0x0003772c                volume_id_set_label_string
 .text.volume_id_set_label_unicode16
                0x00037794       0x28 util-linux/volume_id/lib.a(util.o)
                0x00037794                volume_id_set_label_unicode16
 .text.volume_id_set_uuid
                0x000377bc      0x19c util-linux/volume_id/lib.a(util.o)
                0x000377bc                volume_id_set_uuid
 .text.volume_id_free_buffer
                0x00037958       0x3c util-linux/volume_id/lib.a(util.o)
                0x00037958                volume_id_free_buffer
 .text.volume_id_get_buffer
                0x00037994      0x148 util-linux/volume_id/lib.a(util.o)
                0x00037994                volume_id_get_buffer
 .text.make_new_name_gunzip
                0x00037adc       0x94 archival/lib.a(bbunzip.o)
 .text.open_to_or_warn
                0x00037b70       0x38 archival/lib.a(bbunzip.o)
 .text.append_ext
                0x00037ba8       0x28 archival/lib.a(bbunzip.o)
                0x00037ba8                append_ext
 .text.bbunpack
                0x00037bd0      0x324 archival/lib.a(bbunzip.o)
                0x00037bd0                bbunpack
 .text.gunzip_main
                0x00037ef4       0x88 archival/lib.a(bbunzip.o)
                0x00037ef4                gunzip_main
 .text.bi_reverse
                0x00037f7c       0x2c archival/lib.a(gzip.o)
 .text.init_block
                0x00037fa8       0xc8 archival/lib.a(gzip.o)
 .text.pqdownheap
                0x00038070       0xfc archival/lib.a(gzip.o)
 .text.gen_codes
                0x0003816c       0xac archival/lib.a(gzip.o)
 .text.build_tree
                0x00038218      0x498 archival/lib.a(gzip.o)
 .text.scan_tree
                0x000386b0      0x148 archival/lib.a(gzip.o)
 .text.ct_tally
                0x000387f8      0x1d0 archival/lib.a(gzip.o)
 .text.file_read
                0x000389c8       0x74 archival/lib.a(gzip.o)
 .text.fill_window
                0x00038a3c      0x128 archival/lib.a(gzip.o)
 .text.flush_outbuf
                0x00038b64       0x40 archival/lib.a(gzip.o)
 .text.put_16bit
                0x00038ba4       0x80 archival/lib.a(gzip.o)
 .text.send_bits
                0x00038c24       0x78 archival/lib.a(gzip.o)
 .text.send_tree
                0x00038c9c      0x19c archival/lib.a(gzip.o)
 .text.compress_block
                0x00038e38      0x1a0 archival/lib.a(gzip.o)
 .text.put_32bit
                0x00038fd8       0x1c archival/lib.a(gzip.o)
 .text.bi_windup
                0x00038ff4       0x70 archival/lib.a(gzip.o)
 .text.flush_block
                0x00039064      0x2dc archival/lib.a(gzip.o)
 .text.pack_gzip
                0x00039340      0x98c archival/lib.a(gzip.o)
 .text.gzip_main
                0x00039ccc      0x164 archival/lib.a(gzip.o)
                0x00039ccc                gzip_main
 .text.gnu_dev_major
                0x00039e30       0x14 archival/lib.a(tar.o)
 .text.gnu_dev_minor
                0x00039e44       0x18 archival/lib.a(tar.o)
 .text.append_file_list_to_list
                0x00039e5c       0x7c archival/lib.a(tar.o)
 .text.vfork_compressor
                0x00039ed8      0x110 archival/lib.a(tar.o)
 .text.writeTarFile
                0x00039fe8      0x154 archival/lib.a(tar.o)
 .text.putOctal
                0x0003a13c       0x6c archival/lib.a(tar.o)
 .text.chksum_and_xwrite
                0x0003a1a8       0x80 archival/lib.a(tar.o)
 .text.writeLongname
                0x0003a228      0x110 archival/lib.a(tar.o)
 .text.writeTarHeader
                0x0003a338      0x388 archival/lib.a(tar.o)
 .text.writeFileToTarball
                0x0003a6c0      0x2b4 archival/lib.a(tar.o)
 .text.tar_main
                0x0003a974      0x358 archival/lib.a(tar.o)
                0x0003a974                tar_main
 .text.unzip_create_leading_dirs
                0x0003accc       0x34 archival/lib.a(unzip.o)
 .text.unzip_skip
                0x0003ad00       0x5c archival/lib.a(unzip.o)
 .text.my_fgets80
                0x0003ad5c       0x4c archival/lib.a(unzip.o)
 .text.unzip_main
                0x0003ada8      0x7b0 archival/lib.a(unzip.o)
                0x0003ada8                unzip_main
 .text.data_extract_all
                0x0003b558      0x3cc archival/libarchive/lib.a(data_extract_all.o)
                0x0003b558                data_extract_all
 .text.data_extract_to_stdout
                0x0003b924       0x14 archival/libarchive/lib.a(data_extract_to_stdout.o)
                0x0003b924                data_extract_to_stdout
 .text.data_skip
                0x0003b938       0x1c archival/libarchive/lib.a(data_skip.o)
                0x0003b938                data_skip
 .text.get_bits
                0x0003b954       0xcc archival/libarchive/lib.a(decompress_bunzip2.o)
 .text.get_next_block
                0x0003ba20      0x7b8 archival/libarchive/lib.a(decompress_bunzip2.o)
 .text.read_bunzip
                0x0003c1d8      0x154 archival/libarchive/lib.a(decompress_bunzip2.o)
                0x0003c1d8                read_bunzip
 .text.start_bunzip
                0x0003c32c       0xf0 archival/libarchive/lib.a(decompress_bunzip2.o)
                0x0003c32c                start_bunzip
 .text.dealloc_bunzip
                0x0003c41c       0x1c archival/libarchive/lib.a(decompress_bunzip2.o)
                0x0003c41c                dealloc_bunzip
 .text.unpack_bz2_stream
                0x0003c438      0x168 archival/libarchive/lib.a(decompress_bunzip2.o)
                0x0003c438                unpack_bz2_stream
 .text.inflate_codes_setup
                0x0003c5a0       0x54 archival/libarchive/lib.a(decompress_gunzip.o)
 .text.huft_free
                0x0003c5f4       0x24 archival/libarchive/lib.a(decompress_gunzip.o)
 .text.huft_free_all
                0x0003c618       0x28 archival/libarchive/lib.a(decompress_gunzip.o)
 .text.buffer_read_le_u32
                0x0003c640       0x30 archival/libarchive/lib.a(decompress_gunzip.o)
 .text.huft_build
                0x0003c670      0x51c archival/libarchive/lib.a(decompress_gunzip.o)
 .text.abort_unzip
                0x0003cb8c       0x18 archival/libarchive/lib.a(decompress_gunzip.o)
 .text.fill_bitbuffer
                0x0003cba4       0xf4 archival/libarchive/lib.a(decompress_gunzip.o)
 .text.inflate_block
                0x0003cc98      0x654 archival/libarchive/lib.a(decompress_gunzip.o)
 .text.inflate_codes
                0x0003d2ec      0x35c archival/libarchive/lib.a(decompress_gunzip.o)
 .text.calculate_gunzip_crc
                0x0003d648       0x38 archival/libarchive/lib.a(decompress_gunzip.o)
 .text.inflate_unzip_internal
                0x0003d680      0x2b4 archival/libarchive/lib.a(decompress_gunzip.o)
 .text.top_up   0x0003d934       0x9c archival/libarchive/lib.a(decompress_gunzip.o)
 .text.inflate_unzip
                0x0003d9d0       0x68 archival/libarchive/lib.a(decompress_gunzip.o)
                0x0003d9d0                inflate_unzip
 .text.unpack_gz_stream
                0x0003da38      0x2b0 archival/libarchive/lib.a(decompress_gunzip.o)
                0x0003da38                unpack_gz_stream
 .text.filter_accept_reject_list
                0x0003dce8       0x4c archival/libarchive/lib.a(filter_accept_reject_list.o)
                0x0003dce8                filter_accept_reject_list
 .text.find_list_entry
                0x0003dd34       0x3c archival/libarchive/lib.a(find_list_entry.o)
                0x0003dd34                find_list_entry
 .text.find_list_entry2
                0x0003dd70       0xac archival/libarchive/lib.a(find_list_entry.o)
                0x0003dd70                find_list_entry2
 .text.getOctal
                0x0003de1c       0xa0 archival/libarchive/lib.a(get_header_tar.o)
 .text.get_header_tar
                0x0003debc      0x72c archival/libarchive/lib.a(get_header_tar.o)
                0x0003debc                get_header_tar
 .text.header_list
                0x0003e5e8        0x8 archival/libarchive/lib.a(header_list.o)
                0x0003e5e8                header_list
 .text.header_verbose_list
                0x0003e5f0       0xc0 archival/libarchive/lib.a(header_verbose_list.o)
                0x0003e5f0                header_verbose_list
 .text.init_handle
                0x0003e6b0       0x70 archival/libarchive/lib.a(init_handle.o)
                0x0003e6b0                init_handle
 .text.setup_transformer_on_fd
                0x0003e720       0x94 archival/libarchive/lib.a(open_transformer.o)
 .text.open_transformer
                0x0003e7b4       0x2c archival/libarchive/lib.a(open_transformer.o)
 .text.init_transformer_state
                0x0003e7e0        0xc archival/libarchive/lib.a(open_transformer.o)
                0x0003e7e0                init_transformer_state
 .text.check_signature16
                0x0003e7ec       0x6c archival/libarchive/lib.a(open_transformer.o)
                0x0003e7ec                check_signature16
 .text.transformer_write
                0x0003e858       0xc4 archival/libarchive/lib.a(open_transformer.o)
                0x0003e858                transformer_write
 .text.check_errors_in_children
                0x0003e91c       0x54 archival/libarchive/lib.a(open_transformer.o)
                0x0003e91c                check_errors_in_children
 .text.fork_transformer
                0x0003e970       0x74 archival/libarchive/lib.a(open_transformer.o)
                0x0003e970                fork_transformer
 .text.setup_unzip_on_fd
                0x0003e9e4       0x48 archival/libarchive/lib.a(open_transformer.o)
                0x0003e9e4                setup_unzip_on_fd
 .text.open_zipped
                0x0003ea2c       0x68 archival/libarchive/lib.a(open_transformer.o)
                0x0003ea2c                open_zipped
 .text.xmalloc_open_zipped_read_close
                0x0003ea94       0xd4 archival/libarchive/lib.a(open_transformer.o)
                0x0003ea94                xmalloc_open_zipped_read_close
 .text.seek_by_jump
                0x0003eb68       0x88 archival/libarchive/lib.a(seek_by_jump.o)
                0x0003eb68                seek_by_jump
 .text.seek_by_read
                0x0003ebf0       0x10 archival/libarchive/lib.a(seek_by_read.o)
                0x0003ebf0                seek_by_read
 .text.strip_unsafe_prefix
                0x0003ec00       0xac archival/libarchive/lib.a(unsafe_prefix.o)
                0x0003ec00                strip_unsafe_prefix
 .text.data_align
                0x0003ecac       0x6c archival/libarchive/lib.a(data_align.o)
                0x0003ecac                data_align
 .text.filter_accept_all
                0x0003ed18       0x14 archival/libarchive/lib.a(filter_accept_all.o)
                0x0003ed18                filter_accept_all
 .text.header_skip
                0x0003ed2c        0x4 archival/libarchive/lib.a(header_skip.o)
                0x0003ed2c                header_skip
 .text.clear_main
                0x0003ed30       0x2c console-tools/lib.a(clear.o)
                0x0003ed30                clear_main
 .text.setconsole_main
                0x0003ed5c       0x98 console-tools/lib.a(setconsole.o)
                0x0003ed5c                setconsole_main
 .text.basename_main
                0x0003edf4       0xc8 coreutils/lib.a(basename.o)
                0x0003edf4                basename_main
 .text.bb_cat   0x0003eebc       0x80 coreutils/lib.a(cat.o)
                0x0003eebc                bb_cat
 .text.cat_main
                0x0003ef3c       0x44 coreutils/lib.a(cat.o)
                0x0003ef3c                cat_main
 .text.fileAction
                0x0003ef80       0x9c coreutils/lib.a(chmod.o)
 .text.chmod_main
                0x0003f01c      0x118 coreutils/lib.a(chmod.o)
                0x0003f01c                chmod_main
 .text.fileAction
                0x0003f134       0x54 coreutils/lib.a(chown.o)
 .text.chown_main
                0x0003f188       0xe4 coreutils/lib.a(chown.o)
                0x0003f188                chown_main
 .text.cp_main  0x0003f26c      0x154 coreutils/lib.a(cp.o)
                0x0003f26c                cp_main
 .text.cmpfunc  0x0003f3c0       0x10 coreutils/lib.a(cut.o)
 .text.cut_main
                0x0003f3d0      0x54c coreutils/lib.a(cut.o)
                0x0003f3d0                cut_main
 .text.maybe_set_utc
                0x0003f91c       0x24 coreutils/lib.a(date.o)
 .text.date_main
                0x0003f940      0x3e0 coreutils/lib.a(date.o)
                0x0003f940                date_main
 .text.parse_comma_flags
                0x0003fd20       0x88 coreutils/lib.a(dd.o)
 .text.write_and_stats
                0x0003fda8       0xb8 coreutils/lib.a(dd.o)
 .text.dd_output_status
                0x0003fe60       0x64 coreutils/lib.a(dd.o)
 .text.dd_main  0x0003fec4      0x660 coreutils/lib.a(dd.o)
                0x0003fec4                dd_main
 .text.df_main  0x00040524      0x3e4 coreutils/lib.a(df.o)
                0x00040524                df_main
 .text.dirname_main
                0x00040908       0x1c coreutils/lib.a(dirname.o)
                0x00040908                dirname_main
 .text.print    0x00040924       0x48 coreutils/lib.a(du.o)
 .text.du       0x0004096c      0x23c coreutils/lib.a(du.o)
 .text.du_main  0x00040ba8      0x168 coreutils/lib.a(du.o)
                0x00040ba8                du_main
 .text.echo_main
                0x00040d10      0x1b0 coreutils/lib.a(echo.o)
                0x00040d10                echo_main
 .text.env_main
                0x00040ec0      0x144 coreutils/lib.a(env.o)
                0x00040ec0                env_main
 .text.null     0x00041004       0x58 coreutils/lib.a(expr.o)
 .text.tostring
                0x0004105c       0x44 coreutils/lib.a(expr.o)
 .text.int_value
                0x000410a0       0x1c coreutils/lib.a(expr.o)
 .text.str_value
                0x000410bc       0x30 coreutils/lib.a(expr.o)
 .text.docolon  0x000410ec      0x134 coreutils/lib.a(expr.o)
 .text.toarith  0x00041220       0x68 coreutils/lib.a(expr.o)
 .text.arithmetic_common
                0x00041288       0xd4 coreutils/lib.a(expr.o)
 .text.freev    0x0004135c       0x28 coreutils/lib.a(expr.o)
 .text.nextarg  0x00041384       0x50 coreutils/lib.a(expr.o)
 .text.eval     0x000413d4       0x88 coreutils/lib.a(expr.o)
 .text.eval6    0x0004145c      0x2e4 coreutils/lib.a(expr.o)
 .text.eval5    0x00041740       0x84 coreutils/lib.a(expr.o)
 .text.eval4    0x000417c4       0xd8 coreutils/lib.a(expr.o)
 .text.eval3    0x0004189c       0xbc coreutils/lib.a(expr.o)
 .text.eval2    0x00041958      0x254 coreutils/lib.a(expr.o)
 .text.eval1    0x00041bac       0xac coreutils/lib.a(expr.o)
 .text.expr_main
                0x00041c58       0xa8 coreutils/lib.a(expr.o)
                0x00041c58                expr_main
 .text.fsync_main
                0x00041d00       0xc0 coreutils/lib.a(fsync.o)
                0x00041d00                fsync_main
 .text.head_main
                0x00041dc0      0x450 coreutils/lib.a(head.o)
                0x00041dc0                head_main
 .text.ln_main  0x00042210      0x2d4 coreutils/lib.a(ln.o)
                0x00042210                ln_main
 .text.fgcolor  0x000424e4       0x40 coreutils/lib.a(ls.o)
 .text.bold     0x00042524       0x44 coreutils/lib.a(ls.o)
 .text.append_char
                0x00042568       0x74 coreutils/lib.a(ls.o)
 .text.count_dirs
                0x000425dc       0x84 coreutils/lib.a(ls.o)
 .text.dnalloc  0x00042660       0x14 coreutils/lib.a(ls.o)
 .text.splitdnarray
                0x00042674       0xa0 coreutils/lib.a(ls.o)
 .text.my_stat  0x00042714      0x178 coreutils/lib.a(ls.o)
 .text.print_name
                0x0004288c       0xc4 coreutils/lib.a(ls.o)
 .text.display_single
                0x00042950      0x484 coreutils/lib.a(ls.o)
 .text.dnsort   0x00042dd4       0x20 coreutils/lib.a(ls.o)
 .text.sort_and_display_files
                0x00042df4      0x21c coreutils/lib.a(ls.o)
 .text.sortcmp  0x00043010      0x144 coreutils/lib.a(ls.o)
 .text.scan_and_display_dirs_recur
                0x00043154      0x224 coreutils/lib.a(ls.o)
 .text.ls_main  0x00043378      0x3c8 coreutils/lib.a(ls.o)
                0x00043378                ls_main
 .text.hash_file
                0x00043740       0xfc coreutils/lib.a(md5_sha1_sum.o)
 .text.md5_sha1_sum_main
                0x0004383c      0x264 coreutils/lib.a(md5_sha1_sum.o)
                0x0004383c                md5_sha1_sum_main
 .text.mkdir_main
                0x00043aa0       0xc8 coreutils/lib.a(mkdir.o)
                0x00043aa0                mkdir_main
 .text.mknod_main
                0x00043b68      0x100 coreutils/lib.a(mknod.o)
                0x00043b68                mknod_main
 .text.mv_main  0x00043c68      0x28c coreutils/lib.a(mv.o)
                0x00043c68                mv_main
 .text.nice_main
                0x00043ef4       0xec coreutils/lib.a(nice.o)
                0x00043ef4                nice_main
 .text.nohup_main
                0x00043fe0      0x120 coreutils/lib.a(nohup.o)
                0x00043fe0                nohup_main
 .text.get_width_prec
                0x00044100       0x54 coreutils/lib.a(printf.o)
 .text.multiconvert
                0x00044154       0x80 coreutils/lib.a(printf.o)
 .text.print_direc
                0x000441d4      0x278 coreutils/lib.a(printf.o)
 .text.conv_strtoll
                0x0004444c       0x1c coreutils/lib.a(printf.o)
 .text.conv_strtoull
                0x00044468       0x58 coreutils/lib.a(printf.o)
 .text.conv_strtod
                0x000444c0       0x54 coreutils/lib.a(printf.o)
 .text.printf_main
                0x00044514      0x43c coreutils/lib.a(printf.o)
                0x00044514                printf_main
 .text.pwd_main
                0x00044950       0x30 coreutils/lib.a(pwd.o)
                0x00044950                pwd_main
 .text.readlink_main
                0x00044980       0xb4 coreutils/lib.a(readlink.o)
                0x00044980                readlink_main
 .text.rm_main  0x00044a34      0x108 coreutils/lib.a(rm.o)
                0x00044a34                rm_main
 .text.rmdir_main
                0x00044b3c       0xd0 coreutils/lib.a(rmdir.o)
                0x00044b3c                rmdir_main
 .text.sleep_main
                0x00044c0c       0x68 coreutils/lib.a(sleep.o)
                0x00044c0c                sleep_main
 .text.str2u    0x00044c74       0x4c coreutils/lib.a(sort.o)
 .text.add_key  0x00044cc0       0x44 coreutils/lib.a(sort.o)
 .text.get_key  0x00044d04      0x2c4 coreutils/lib.a(sort.o)
 .text.compare_keys
                0x00044fc8      0x3fc coreutils/lib.a(sort.o)
 .text.sort_main
                0x000453c4      0x458 coreutils/lib.a(sort.o)
                0x000453c4                sort_main
 .text.sync_main
                0x0004581c       0x10 coreutils/lib.a(sync.o)
                0x0004581c                sync_main
 .text.eat_num  0x0004582c       0x48 coreutils/lib.a(tail.o)
 .text.tail_read
                0x00045874       0x48 coreutils/lib.a(tail.o)
 .text.tail_xprint_header
                0x000458bc       0x24 coreutils/lib.a(tail.o)
 .text.tail_main
                0x000458e0      0x80c coreutils/lib.a(tail.o)
                0x000458e0                tail_main
 .text.syntax   0x000460ec       0x6c coreutils/lib.a(test.o)
 .text.getn     0x00046158       0x90 coreutils/lib.a(test.o)
 .text.check_operator
                0x000461e8       0x78 coreutils/lib.a(test.o)
 .text.binop    0x00046260      0x278 coreutils/lib.a(test.o)
 .text.nexpr    0x000464d8      0x448 coreutils/lib.a(test.o)
 .text.aexpr    0x00046920       0x90 coreutils/lib.a(test.o)
 .text.oexpr    0x000469b0       0x90 coreutils/lib.a(test.o)
 .text.test_main
                0x00046a40      0x230 coreutils/lib.a(test.o)
                0x00046a40                test_main
 .text.touch_main
                0x00046c70      0x1c4 coreutils/lib.a(touch.o)
                0x00046c70                touch_main
 .text.complement
                0x00046e34       0x68 coreutils/lib.a(tr.o)
 .text.expand   0x00046e9c       0xec coreutils/lib.a(tr.o)
 .text.tr_main  0x00046f88      0x244 coreutils/lib.a(tr.o)
                0x00046f88                tr_main
 .text.true_main
                0x000471cc        0x8 coreutils/lib.a(true.o)
                0x000471cc                true_main
 .text.uname_main
                0x000471d4      0x14c coreutils/lib.a(uname.o)
                0x000471d4                uname_main
 .text.uniq_main
                0x00047320      0x238 coreutils/lib.a(uniq.o)
                0x00047320                uniq_main
 .text.usleep_main
                0x00047558       0x24 coreutils/lib.a(usleep.o)
                0x00047558                usleep_main
 .text.base64_main
                0x0004757c      0x13c coreutils/lib.a(uudecode.o)
                0x0004757c                base64_main
 .text.wc_main  0x000476b8      0x328 coreutils/lib.a(wc.o)
                0x000476b8                wc_main
 .text.cp_mv_stat2
                0x000479e0       0x78 coreutils/libcoreutils/lib.a(cp_mv_stat.o)
                0x000479e0                cp_mv_stat2
 .text.cp_mv_stat
                0x00047a58       0x1c coreutils/libcoreutils/lib.a(cp_mv_stat.o)
                0x00047a58                cp_mv_stat
 .text.getopt_mk_fifo_nod
                0x00047a74       0x60 coreutils/libcoreutils/lib.a(getopt_mk_fifo_nod.o)
                0x00047a74                getopt_mk_fifo_nod
 .text.check    0x00047ad4      0x1e0 debianutils/lib.a(start_stop_daemon.o)
 .text.start_stop_daemon_main
                0x00047cb4      0x56c debianutils/lib.a(start_stop_daemon.o)
                0x00047cb4                start_stop_daemon_main
 .text.which_main
                0x00048220      0x144 debianutils/lib.a(which.o)
                0x00048220                which_main
 .text.new_args
                0x00048364       0x40 e2fsprogs/lib.a(fsck.o)
 .text.create_fs_device
                0x000483a4       0xc4 e2fsprogs/lib.a(fsck.o)
 .text.load_fs_info
                0x00048468       0xa0 e2fsprogs/lib.a(fsck.o)
 .text.opt_in_list
                0x00048508       0x64 e2fsprogs/lib.a(fsck.o)
 .text.ignore   0x0004856c      0x110 e2fsprogs/lib.a(fsck.o)
 .text.base_device
                0x0004867c      0x11c e2fsprogs/lib.a(fsck.o)
 .text.kill_all_if_got_signal
                0x00048798       0x74 e2fsprogs/lib.a(fsck.o)
 .text.fsck_device
                0x0004880c      0x274 e2fsprogs/lib.a(fsck.o)
 .text.wait_one
                0x00048a80      0x1a4 e2fsprogs/lib.a(fsck.o)
 .text.wait_many
                0x00048c24       0x34 e2fsprogs/lib.a(fsck.o)
 .text.fsck_main
                0x00048c58      0x8e8 e2fsprogs/lib.a(fsck.o)
                0x00048c58                fsck_main
 .text.hashidx  0x00049540       0x28 editors/lib.a(awk.o)
 .text.skip_spaces
                0x00049568       0x58 editors/lib.a(awk.o)
 .text.nextword
                0x000495c0       0x20 editors/lib.a(awk.o)
 .text.rollback_token
                0x000495e0       0x24 editors/lib.a(awk.o)
 .text.nextarg  0x00049604       0x38 editors/lib.a(awk.o)
 .text.hash_init
                0x0004963c       0x2c editors/lib.a(awk.o)
 .text.iamarray
                0x00049668       0x3c editors/lib.a(awk.o)
 .text.new_node
                0x000496a4       0x38 editors/lib.a(awk.o)
 .text.nvalloc  0x000496dc       0xfc editors/lib.a(awk.o)
 .text.qrealloc
                0x000497d8       0x28 editors/lib.a(awk.o)
 .text.clrvar   0x00049800       0x40 editors/lib.a(awk.o)
 .text.fsrealloc
                0x00049840       0xbc editors/lib.a(awk.o)
 .text.clear_array
                0x000498fc       0x68 editors/lib.a(awk.o)
 .text.zero_out_var
                0x00049964        0xc editors/lib.a(awk.o)
 .text.chain_node
                0x00049970       0x94 editors/lib.a(awk.o)
 .text.mk_re_node
                0x00049a04       0x40 editors/lib.a(awk.o)
 .text.mk_splitter
                0x00049a44       0x68 editors/lib.a(awk.o)
 .text.my_strtod
                0x00049aac        0xc editors/lib.a(awk.o)
 .text.getvar_i
                0x00049ab8       0x9c editors/lib.a(awk.o)
 .text.is_numeric
                0x00049b54       0x20 editors/lib.a(awk.o)
 .text.istrue   0x00049b74       0x4c editors/lib.a(awk.o)
 .text.getvar_i_int
                0x00049bc0       0x4c editors/lib.a(awk.o)
 .text.hash_search
                0x00049c0c       0x50 editors/lib.a(awk.o)
 .text.hash_find
                0x00049c5c      0x124 editors/lib.a(awk.o)
 .text.hash_remove
                0x00049d80       0x88 editors/lib.a(awk.o)
 .text.nextchar
                0x00049e08       0x50 editors/lib.a(awk.o)
 .text.unescape_string_in_place
                0x00049e58       0x28 editors/lib.a(awk.o)
 .text.do_mktime
                0x00049e80       0xac editors/lib.a(awk.o)
 .text.syntax_error
                0x00049f2c       0x38 editors/lib.a(awk.o)
 .text.fmt_num  0x00049f64      0x130 editors/lib.a(awk.o)
 .text.getvar_s
                0x0004a094       0x90 editors/lib.a(awk.o)
 .text.awk_split
                0x0004a124      0x2cc editors/lib.a(awk.o)
 .text.split_f0
                0x0004a3f0       0xd0 editors/lib.a(awk.o)
 .text.handle_special
                0x0004a4c0      0x1c8 editors/lib.a(awk.o)
 .text.setvar_p
                0x0004a688       0x24 editors/lib.a(awk.o)
 .text.setvar_s
                0x0004a6ac       0x30 editors/lib.a(awk.o)
 .text.setvar_u
                0x0004a6dc       0x18 editors/lib.a(awk.o)
 .text.is_assignment
                0x0004a6f4       0xbc editors/lib.a(awk.o)
 .text.setari_u
                0x0004a7b0       0x34 editors/lib.a(awk.o)
 .text.setvar_i
                0x0004a7e4       0x34 editors/lib.a(awk.o)
 .text.incvar   0x0004a818       0x30 editors/lib.a(awk.o)
 .text.awk_getline
                0x0004a848      0x344 editors/lib.a(awk.o)
 .text.copyvar  0x0004ab8c       0x5c editors/lib.a(awk.o)
 .text.next_input_file
                0x0004abe8      0x134 editors/lib.a(awk.o)
 .text.next_token
                0x0004ad1c      0x474 editors/lib.a(awk.o)
 .text.parse_expr
                0x0004b190      0x38c editors/lib.a(awk.o)
 .text.condition
                0x0004b51c       0x18 editors/lib.a(awk.o)
 .text.chain_expr
                0x0004b534       0x44 editors/lib.a(awk.o)
 .text.chain_group
                0x0004b578      0x2d0 editors/lib.a(awk.o)
 .text.parse_program
                0x0004b848      0x170 editors/lib.a(awk.o)
 .text.chain_loop
                0x0004b9b8       0x94 editors/lib.a(awk.o)
 .text.nvfree   0x0004ba4c      0x104 editors/lib.a(awk.o)
 .text.awk_exit
                0x0004bb50       0xac editors/lib.a(awk.o)
 .text.evaluate
                0x0004bbfc     0x1084 editors/lib.a(awk.o)
 .text.as_regex
                0x0004cc80       0xb4 editors/lib.a(awk.o)
 .text.awk_sub  0x0004cd34      0x2a8 editors/lib.a(awk.o)
 .text.exec_builtin
                0x0004cfdc      0x62c editors/lib.a(awk.o)
 .text.awk_printf
                0x0004d608      0x21c editors/lib.a(awk.o)
 .text.ptest    0x0004d824       0x2c editors/lib.a(awk.o)
 .text.awk_main
                0x0004d850      0x52c editors/lib.a(awk.o)
                0x0004d850                awk_main
 .text.cmp_main
                0x0004dd7c      0x264 editors/lib.a(cmp.o)
                0x0004dd7c                cmp_main
 .text.index_of_next_unescaped_regexp_delim
                0x0004dfe0       0xc8 editors/lib.a(sed.o)
 .text.parse_escapes
                0x0004e0a8       0xbc editors/lib.a(sed.o)
 .text.copy_parsing_escapes
                0x0004e164       0x70 editors/lib.a(sed.o)
 .text.get_address
                0x0004e1d4       0xf8 editors/lib.a(sed.o)
 .text.parse_regex_delim
                0x0004e2cc       0x90 editors/lib.a(sed.o)
 .text.parse_file_cmd
                0x0004e35c       0xb0 editors/lib.a(sed.o)
 .text.add_cmd  0x0004e40c      0x640 editors/lib.a(sed.o)
 .text.add_cmd_block
                0x0004ea4c       0x48 editors/lib.a(sed.o)
 .text.pipe_putc
                0x0004ea94       0x64 editors/lib.a(sed.o)
 .text.append   0x0004eaf8       0x24 editors/lib.a(sed.o)
 .text.puts_maybe_newline
                0x0004eb1c       0xbc editors/lib.a(sed.o)
 .text.flush_append
                0x0004ebd8       0x54 editors/lib.a(sed.o)
 .text.get_next_line
                0x0004ec2c      0x144 editors/lib.a(sed.o)
 .text.cleanup_outname
                0x0004ed70       0x28 editors/lib.a(sed.o)
 .text.process_files
                0x0004ed98      0xb28 editors/lib.a(sed.o)
 .text.sed_main
                0x0004f8c0      0x3c0 editors/lib.a(sed.o)
                0x0004f8c0                sed_main
 .text.next_tabstop
                0x0004fc80       0x34 editors/lib.a(vi.o)
 .text.dot_left
                0x0004fcb4       0x3c editors/lib.a(vi.o)
 .text.dot_right
                0x0004fcf0       0x3c editors/lib.a(vi.o)
 .text.dot_skip_over_ws
                0x0004fd2c       0x5c editors/lib.a(vi.o)
 .text.end_cmd_q
                0x0004fd88       0x2c editors/lib.a(vi.o)
 .text.what_reg
                0x0004fdb4       0x4c editors/lib.a(vi.o)
 .text.show_help
                0x0004fe00       0x1c editors/lib.a(vi.o)
 .text.text_yank
                0x0004fe1c       0x50 editors/lib.a(vi.o)
 .text.find_pair
                0x0004fe6c       0xac editors/lib.a(vi.o)
 .text.rawmode  0x0004ff18       0x98 editors/lib.a(vi.o)
 .text.cookmode
                0x0004ffb0       0x2c editors/lib.a(vi.o)
 .text.query_screen_dimensions
                0x0004ffdc       0x50 editors/lib.a(vi.o)
 .text.screen_erase
                0x0005002c       0x28 editors/lib.a(vi.o)
 .text.new_screen
                0x00050054       0x78 editors/lib.a(vi.o)
 .text.text_hole_make
                0x000500cc       0xec editors/lib.a(vi.o)
 .text.stupid_insert
                0x000501b8       0x1c editors/lib.a(vi.o)
 .text.text_hole_delete
                0x000501d4       0xb0 editors/lib.a(vi.o)
 .text.yank_delete
                0x00050284       0xa8 editors/lib.a(vi.o)
 .text.status_line_bold
                0x0005032c       0x78 editors/lib.a(vi.o)
 .text.status_line_bold_errno
                0x000503a4       0x44 editors/lib.a(vi.o)
 .text.file_insert
                0x000503e8      0x194 editors/lib.a(vi.o)
 .text.not_implemented
                0x0005057c      0x124 editors/lib.a(vi.o)
 .text.status_line
                0x000506a0       0x48 editors/lib.a(vi.o)
 .text.string_insert
                0x000506e8       0x88 editors/lib.a(vi.o)
 .text.skip_thing
                0x00050770      0x180 editors/lib.a(vi.o)
 .text.setops   0x000508f0       0x88 editors/lib.a(vi.o)
 .text.mycmp    0x00050978       0x2c editors/lib.a(vi.o)
 .text.file_write
                0x000509a4       0x94 editors/lib.a(vi.o)
 .text.begin_line
                0x00050a38       0x50 editors/lib.a(vi.o)
 .text.prev_line
                0x00050a88       0x40 editors/lib.a(vi.o)
 .text.dot_prev
                0x00050ac8       0x2c editors/lib.a(vi.o)
 .text.move_to_col
                0x00050af4       0x80 editors/lib.a(vi.o)
 .text.dot_begin
                0x00050b74       0x2c editors/lib.a(vi.o)
 .text.end_line
                0x00050ba0       0x50 editors/lib.a(vi.o)
 .text.next_line
                0x00050bf0       0x40 editors/lib.a(vi.o)
 .text.find_line
                0x00050c30       0x3c editors/lib.a(vi.o)
 .text.char_search
                0x00050c6c       0xe8 editors/lib.a(vi.o)
 .text.dot_next
                0x00050d54       0x2c editors/lib.a(vi.o)
 .text.count_lines
                0x00050d80       0x80 editors/lib.a(vi.o)
 .text.get_one_address
                0x00050e00      0x174 editors/lib.a(vi.o)
 .text.end_screen
                0x00050f74       0x48 editors/lib.a(vi.o)
 .text.dot_scroll
                0x00050fbc       0x94 editors/lib.a(vi.o)
 .text.sync_cursor
                0x00051050      0x1a4 editors/lib.a(vi.o)
 .text.dot_end  0x000511f4       0x2c editors/lib.a(vi.o)
 .text.mysleep  0x00051220       0x44 editors/lib.a(vi.o)
 .text.catch_sig
                0x00051264       0x40 editors/lib.a(vi.o)
 .text.write1   0x000512a4       0x20 editors/lib.a(vi.o)
 .text.standout_start
                0x000512c4       0x1c editors/lib.a(vi.o)
 .text.standout_end
                0x000512e0       0x1c editors/lib.a(vi.o)
 .text.place_cursor
                0x000512fc       0x70 editors/lib.a(vi.o)
 .text.refresh  0x0005136c      0x37c editors/lib.a(vi.o)
 .text.clear_to_eos
                0x000516e8       0x1c editors/lib.a(vi.o)
 .text.go_bottom_and_clear_to_eol
                0x00051704       0x40 editors/lib.a(vi.o)
 .text.readit   0x00051744       0x50 editors/lib.a(vi.o)
 .text.get_one_char
                0x00051794       0x9c editors/lib.a(vi.o)
 .text.suspend_sig
                0x00051830       0x68 editors/lib.a(vi.o)
 .text.get_input_line
                0x00051898      0x10c editors/lib.a(vi.o)
 .text.Hit_Return
                0x000519a4       0x48 editors/lib.a(vi.o)
 .text.show_status_line
                0x000519ec      0x200 editors/lib.a(vi.o)
 .text.redraw   0x00051bec       0x4c editors/lib.a(vi.o)
 .text.cont_sig
                0x00051c38       0x68 editors/lib.a(vi.o)
 .text.winch_sig
                0x00051ca0       0x60 editors/lib.a(vi.o)
 .text.indicate_error
                0x00051d00       0x60 editors/lib.a(vi.o)
 .text.char_insert
                0x00051d60      0x1e0 editors/lib.a(vi.o)
 .text.init_text_buffer
                0x00051f40       0xa8 editors/lib.a(vi.o)
 .text.bound_dot
                0x00051fe8       0x5c editors/lib.a(vi.o)
 .text.colon    0x00052044      0xeb8 editors/lib.a(vi.o)
 .text.do_cmd   0x00052efc     0x1838 editors/lib.a(vi.o)
 .text.edit_file
                0x00054734      0x3a4 editors/lib.a(vi.o)
 .text.find_range
                0x00054ad8      0x2c8 editors/lib.a(vi.o)
 .text.vi_main  0x00054da0      0x1a0 editors/lib.a(vi.o)
                0x00054da0                vi_main
 .text.alloc_action
                0x00054f40       0x64 findutils/lib.a(find.o)
 .text.func_mtime
                0x00054fa4       0x94 findutils/lib.a(find.o)
 .text.func_name
                0x00055038       0x70 findutils/lib.a(find.o)
 .text.do_exec  0x000550a8       0xc0 findutils/lib.a(find.o)
 .text.func_exec
                0x00055168        0xc findutils/lib.a(find.o)
 .text.func_print0
                0x00055174       0x30 findutils/lib.a(find.o)
 .text.func_print
                0x000551a4       0x10 findutils/lib.a(find.o)
 .text.fileAction
                0x000551b4       0xac findutils/lib.a(find.o)
 .text.find_main
                0x00055260      0x498 findutils/lib.a(find.o)
                0x00055260                find_main
 .text.add_grep_list_data
                0x000556f8       0x18 findutils/lib.a(grep.o)
 .text.print_line
                0x00055710       0xf4 findutils/lib.a(grep.o)
 .text.grep_file
                0x00055804      0x694 findutils/lib.a(grep.o)
 .text.file_action_grep
                0x00055e98       0x88 findutils/lib.a(grep.o)
 .text.grep_main
                0x00055f20      0x444 findutils/lib.a(grep.o)
                0x00055f20                grep_main
 .text.store_param
                0x00056364       0x58 findutils/lib.a(xargs.o)
 .text.process0_stdin
                0x000563bc       0x94 findutils/lib.a(xargs.o)
 .text.process_stdin
                0x00056450      0x1a4 findutils/lib.a(xargs.o)
 .text.xargs_main
                0x000565f4      0x3d8 findutils/lib.a(xargs.o)
                0x000565f4                xargs_main
 .text.bb_ask_confirmation
                0x000569cc       0x68 libbb/lib.a(ask_confirmation.o)
                0x000569cc                bb_ask_confirmation
 .text.auto_string
                0x00056a34       0x4c libbb/lib.a(auto_string.o)
                0x00056a34                auto_string
 .text.bb_do_delay
                0x00056a80       0x34 libbb/lib.a(bb_do_delay.o)
                0x00056a80                bb_do_delay
 .text.xgetpwnam
                0x00056ab4       0x34 libbb/lib.a(bb_pwd.o)
                0x00056ab4                xgetpwnam
 .text.xgetgrnam
                0x00056ae8       0x34 libbb/lib.a(bb_pwd.o)
                0x00056ae8                xgetgrnam
 .text.xgetpwuid
                0x00056b1c       0x34 libbb/lib.a(bb_pwd.o)
                0x00056b1c                xgetpwuid
 .text.uid2uname
                0x00056b50       0x14 libbb/lib.a(bb_pwd.o)
                0x00056b50                uid2uname
 .text.gid2group
                0x00056b64       0x14 libbb/lib.a(bb_pwd.o)
                0x00056b64                gid2group
 .text.uid2uname_utoa
                0x00056b78       0x20 libbb/lib.a(bb_pwd.o)
                0x00056b78                uid2uname_utoa
 .text.gid2group_utoa
                0x00056b98       0x20 libbb/lib.a(bb_pwd.o)
                0x00056b98                gid2group_utoa
 .text.xuname2uid
                0x00056bb8       0x10 libbb/lib.a(bb_pwd.o)
                0x00056bb8                xuname2uid
 .text.xgroup2gid
                0x00056bc8       0x10 libbb/lib.a(bb_pwd.o)
                0x00056bc8                xgroup2gid
 .text.get_ug_id
                0x00056bd8       0x48 libbb/lib.a(bb_pwd.o)
                0x00056bd8                get_ug_id
 .text.change_identity
                0x00056c20       0x7c libbb/lib.a(change_identity.o)
                0x00056c20                change_identity
 .text.chomp    0x00056c9c       0x1c libbb/lib.a(chomp.o)
                0x00056c9c                chomp
 .text.concat_path_file
                0x00056cb8       0x70 libbb/lib.a(concat_path_file.o)
                0x00056cb8                concat_path_file
 .text.concat_subpath_file
                0x00056d28       0x44 libbb/lib.a(concat_subpath_file.o)
                0x00056d28                concat_subpath_file
 .text.ask_and_unlink
                0x00056d6c       0xa0 libbb/lib.a(copy_file.o)
 .text.copy_file
                0x00056e0c      0x6a0 libbb/lib.a(copy_file.o)
                0x00056e0c                copy_file
 .text.get_passwd
                0x000574ac       0x88 libbb/lib.a(correct_password.o)
 .text.check_password
                0x00057534       0x5c libbb/lib.a(correct_password.o)
                0x00057534                check_password
 .text.ask_and_check_password_extended
                0x00057590       0x6c libbb/lib.a(correct_password.o)
                0x00057590                ask_and_check_password_extended
 .text.ask_and_check_password
                0x000575fc       0x20 libbb/lib.a(correct_password.o)
                0x000575fc                ask_and_check_password
 .text.crc32_filltable
                0x0005761c       0x8c libbb/lib.a(crc32.o)
                0x0005761c                crc32_filltable
 .text.crc32_block_endian0
                0x000576a8       0x28 libbb/lib.a(crc32.o)
                0x000576a8                crc32_block_endian0
 .text.device_open
                0x000576d0       0x58 libbb/lib.a(device_open.o)
                0x000576d0                device_open
 .text.endofname
                0x00057728       0x6c libbb/lib.a(endofname.o)
                0x00057728                endofname
 .text.file_is_executable
                0x00057794       0x54 libbb/lib.a(executable.o)
                0x00057794                file_is_executable
 .text.find_executable
                0x000577e8       0x8c libbb/lib.a(executable.o)
                0x000577e8                find_executable
 .text.BB_EXECVP_or_die
                0x00057874       0x5c libbb/lib.a(executable.o)
                0x00057874                BB_EXECVP_or_die
 .text.fclose_if_not_stdin
                0x000578d0       0x5c libbb/lib.a(fclose_nonstdin.o)
                0x000578d0                fclose_if_not_stdin
 .text.fflush_stdout_and_exit
                0x0005792c       0x4c libbb/lib.a(fflush_stdout_and_exit.o)
                0x0005792c                fflush_stdout_and_exit
 .text.xmalloc_fgets_internal
                0x00057978       0xf0 libbb/lib.a(fgets_str.o)
 .text.xmalloc_fgets_str
                0x00057a68       0x20 libbb/lib.a(fgets_str.o)
                0x00057a68                xmalloc_fgets_str
 .text.find_mount_point
                0x00057a88      0x14c libbb/lib.a(find_mount_point.o)
                0x00057a88                find_mount_point
 .text.find_pid_by_name
                0x00057bd4      0x104 libbb/lib.a(find_pid_by_name.o)
                0x00057bd4                find_pid_by_name
 .text.pidlist_reverse
                0x00057cd8       0x60 libbb/lib.a(find_pid_by_name.o)
                0x00057cd8                pidlist_reverse
 .text.bb_get_chunk_from_file
                0x00057d38       0xa0 libbb/lib.a(get_line_from_file.o)
                0x00057d38                bb_get_chunk_from_file
 .text.xmalloc_fgets
                0x00057dd8       0x10 libbb/lib.a(get_line_from_file.o)
                0x00057dd8                xmalloc_fgets
 .text.xmalloc_fgetline
                0x00057de8       0x34 libbb/lib.a(get_line_from_file.o)
                0x00057de8                xmalloc_fgetline
 .text.get_shell_name
                0x00057e1c       0x80 libbb/lib.a(get_shell_name.o)
                0x00057e1c                get_shell_name
 .text.get_volume_size_in_bytes
                0x00057e9c      0x138 libbb/lib.a(get_volsize.o)
                0x00057e9c                get_volume_size_in_bytes
 .text.getopt32
                0x00057fd4      0x6d0 libbb/lib.a(getopt32.o)
                0x00057fd4                getopt32
 .text.xgetpty  0x000586a4       0x80 libbb/lib.a(getpty.o)
                0x000586a4                xgetpty
 .text.md5_process_block64
                0x00058724      0x264 libbb/lib.a(hash_md5_sha.o)
 .text.common64_end
                0x00058988       0x84 libbb/lib.a(hash_md5_sha.o)
 .text.md5_begin
                0x00058a0c       0x5c libbb/lib.a(hash_md5_sha.o)
                0x00058a0c                md5_begin
 .text.md5_hash
                0x00058a68       0x64 libbb/lib.a(hash_md5_sha.o)
                0x00058a68                md5_hash
 .text.md5_end  0x00058acc       0x28 libbb/lib.a(hash_md5_sha.o)
                0x00058acc                md5_end
 .text.bb_herror_msg_and_die
                0x00058af4       0x30 libbb/lib.a(herror_msg.o)
                0x00058af4                bb_herror_msg_and_die
 .text.make_human_readable_str
                0x00058b24      0x168 libbb/lib.a(human_readable.o)
                0x00058b24                make_human_readable_str
 .text.smart_ulltoa5
                0x00058c8c      0x22c libbb/lib.a(human_readable.o)
                0x00058c8c                smart_ulltoa5
 .text.in_ether
                0x00058eb8       0xb8 libbb/lib.a(in_ether.o)
                0x00058eb8                in_ether
 .text.inet_cksum
                0x00058f70       0x3c libbb/lib.a(inet_cksum.o)
                0x00058f70                inet_cksum
 .text.INET_resolve
                0x00058fac       0xd4 libbb/lib.a(inet_common.o)
                0x00058fac                INET_resolve
 .text.INET_rresolve
                0x00059080      0x124 libbb/lib.a(inet_common.o)
                0x00059080                INET_rresolve
 .text.INET6_resolve
                0x000591a4       0xa4 libbb/lib.a(inet_common.o)
                0x000591a4                INET6_resolve
 .text.INET6_rresolve
                0x00059248       0x98 libbb/lib.a(inet_common.o)
                0x00059248                INET6_rresolve
 .text.is_in_ino_dev_hashtable
                0x000592e0       0xb4 libbb/lib.a(inode_hash.o)
                0x000592e0                is_in_ino_dev_hashtable
 .text.add_to_ino_dev_hashtable
                0x00059394       0xb0 libbb/lib.a(inode_hash.o)
                0x00059394                add_to_ino_dev_hashtable
 .text.reset_ino_dev_hashtable
                0x00059444       0x6c libbb/lib.a(inode_hash.o)
                0x00059444                reset_ino_dev_hashtable
 .text.is_directory
                0x000594b0       0x4c libbb/lib.a(isdirectory.o)
                0x000594b0                is_directory
 .text.BB_isspace
                0x000594fc       0x2c libbb/lib.a(lineedit.o)
 .text.remove_chunk
                0x00059528       0x2c libbb/lib.a(lineedit.o)
 .text.build_match_prefix
                0x00059554      0x334 libbb/lib.a(lineedit.o)
 .text.free_tab_completion_data
                0x00059888       0x60 libbb/lib.a(lineedit.o)
 .text.deinit_S
                0x000598e8       0x58 libbb/lib.a(lineedit.o)
 .text.BB_ispunct
                0x00059940       0x44 libbb/lib.a(lineedit.o)
 .text.put_prompt
                0x00059984       0x70 libbb/lib.a(lineedit.o)
 .text.parse_and_put_prompt
                0x000599f4      0x3cc libbb/lib.a(lineedit.o)
 .text.load_string
                0x00059dc0       0x48 libbb/lib.a(lineedit.o)
 .text.is_special_char
                0x00059e08       0x20 libbb/lib.a(lineedit.o)
 .text.quote_special_chars
                0x00059e28       0x58 libbb/lib.a(lineedit.o)
 .text.complete_cmd_dir_file
                0x00059e80      0x330 libbb/lib.a(lineedit.o)
 .text.beep     0x0005a1b0        0x8 libbb/lib.a(lineedit.o)
 .text.input_backward
                0x0005a1b8       0xf0 libbb/lib.a(lineedit.o)
 .text.put_cur_glyph_and_inc_cursor
                0x0005a2a8      0x100 libbb/lib.a(lineedit.o)
 .text.input_forward
                0x0005a3a8       0x30 libbb/lib.a(lineedit.o)
 .text.put_till_end_and_adv_cursor
                0x0005a3d8       0x3c libbb/lib.a(lineedit.o)
 .text.redraw   0x0005a414       0x58 libbb/lib.a(lineedit.o)
 .text.goto_new_line
                0x0005a46c       0x3c libbb/lib.a(lineedit.o)
 .text.input_delete
                0x0005a4a8       0x7c libbb/lib.a(lineedit.o)
 .text.input_backspace
                0x0005a524       0x3c libbb/lib.a(lineedit.o)
 .text.save_string
                0x0005a560       0x40 libbb/lib.a(lineedit.o)
 .text.input_tab
                0x0005a5a0      0x46c libbb/lib.a(lineedit.o)
 .text.save_command_ps_at_cur_history
                0x0005aa0c       0x7c libbb/lib.a(lineedit.o)
 .text.get_previous_history
                0x0005aa88       0x64 libbb/lib.a(lineedit.o)
 .text.get_next_history
                0x0005aaec       0x64 libbb/lib.a(lineedit.o)
 .text.win_changed
                0x0005ab50       0x88 libbb/lib.a(lineedit.o)
 .text.new_line_input_t
                0x0005abd8       0x20 libbb/lib.a(lineedit.o)
                0x0005abd8                new_line_input_t
 .text.show_history
                0x0005abf8       0x54 libbb/lib.a(lineedit.o)
                0x0005abf8                show_history
 .text.read_line_input
                0x0005ac4c      0x8f0 libbb/lib.a(lineedit.o)
                0x0005ac4c                read_line_input
 .text.llist_add_to
                0x0005b53c       0x28 libbb/lib.a(llist.o)
                0x0005b53c                llist_add_to
 .text.llist_add_to_end
                0x0005b564       0x34 libbb/lib.a(llist.o)
                0x0005b564                llist_add_to_end
 .text.llist_pop
                0x0005b598       0x2c libbb/lib.a(llist.o)
                0x0005b598                llist_pop
 .text.llist_rev
                0x0005b5c4       0x28 libbb/lib.a(llist.o)
                0x0005b5c4                llist_rev
 .text.bb_logenv_override
                0x0005b5ec       0x78 libbb/lib.a(logenv.o)
                0x0005b5ec                bb_logenv_override
 .text.print_login_issue
                0x0005b664      0x1d4 libbb/lib.a(login.o)
                0x0005b664                print_login_issue
 .text.print_login_prompt
                0x0005b838       0xa0 libbb/lib.a(login.o)
                0x0005b838                print_login_prompt
 .text.sanitize_env_if_suid
                0x0005b8d8       0x70 libbb/lib.a(login.o)
                0x0005b8d8                sanitize_env_if_suid
 .text.del_loop
                0x0005b948       0x38 libbb/lib.a(loop.o)
                0x0005b948                del_loop
 .text.set_loop
                0x0005b980      0x2bc libbb/lib.a(loop.o)
                0x0005b980                set_loop
 .text.bb_make_directory
                0x0005bc3c      0x1e4 libbb/lib.a(make_directory.o)
                0x0005bc3c                bb_make_directory
 .text.bb_makedev
                0x0005be20       0x50 libbb/lib.a(makedev.o)
                0x0005be20                bb_makedev
 .text.match_fstype
                0x0005be70       0x80 libbb/lib.a(match_fstype.o)
                0x0005be70                match_fstype
 .text.bb_mode_string
                0x0005bef0       0xc0 libbb/lib.a(mode_string.o)
                0x0005bef0                bb_mode_string
 .text.nuke_str
                0x0005bfb0       0x24 libbb/lib.a(nuke_str.o)
                0x0005bfb0                nuke_str
 .text.config_open2
                0x0005bfd4       0x28 libbb/lib.a(parse_config.o)
                0x0005bfd4                config_open2
 .text.config_open
                0x0005bffc       0x1c libbb/lib.a(parse_config.o)
                0x0005bffc                config_open
 .text.config_close
                0x0005c018       0x30 libbb/lib.a(parse_config.o)
                0x0005c018                config_close
 .text.config_read
                0x0005c048      0x2ac libbb/lib.a(parse_config.o)
                0x0005c048                config_read
 .text.bb_parse_mode
                0x0005c2f4      0x278 libbb/lib.a(parse_mode.o)
                0x0005c2f4                bb_parse_mode
 .text.bb_perror_nomsg_and_die
                0x0005c56c        0x8 libbb/lib.a(perror_nomsg_and_die.o)
                0x0005c56c                bb_perror_nomsg_and_die
 .text.write_pidfile
                0x0005c574       0xb0 libbb/lib.a(pidfile.o)
                0x0005c574                write_pidfile
 .text.print_flags_separated
                0x0005c624       0x94 libbb/lib.a(print_flags.o)
                0x0005c624                print_flags_separated
 .text.fputc_printable
                0x0005c6b8       0x80 libbb/lib.a(printable.o)
                0x0005c6b8                fputc_printable
 .text.printable_string
                0x0005c738       0x54 libbb/lib.a(printable_string.o)
                0x0005c738                printable_string
 .text.bb_process_escape_sequence
                0x0005c78c       0xec libbb/lib.a(process_escape_sequence.o)
                0x0005c78c                bb_process_escape_sequence
 .text.fast_strtoul_16
                0x0005c878       0x40 libbb/lib.a(procps.o)
 .text.fast_strtoul_10
                0x0005c8b8       0x40 libbb/lib.a(procps.o)
 .text.skip_fields
                0x0005c8f8       0x24 libbb/lib.a(procps.o)
 .text.clear_cache
                0x0005c91c       0x20 libbb/lib.a(procps.o)
 .text.read_to_buf
                0x0005c93c       0x48 libbb/lib.a(procps.o)
 .text.get_cached
                0x0005c984       0x9c libbb/lib.a(procps.o)
 .text.clear_username_cache
                0x0005ca20       0x34 libbb/lib.a(procps.o)
                0x0005ca20                clear_username_cache
 .text.get_cached_username
                0x0005ca54       0x2c libbb/lib.a(procps.o)
                0x0005ca54                get_cached_username
 .text.get_cached_groupname
                0x0005ca80       0x2c libbb/lib.a(procps.o)
                0x0005ca80                get_cached_groupname
 .text.free_procps_scan
                0x0005caac       0x3c libbb/lib.a(procps.o)
                0x0005caac                free_procps_scan
 .text.procps_read_smaps
                0x0005cae8      0x30c libbb/lib.a(procps.o)
                0x0005cae8                procps_read_smaps
 .text.procps_scan
                0x0005cdf4      0x498 libbb/lib.a(procps.o)
                0x0005cdf4                procps_scan
 .text.read_cmdline
                0x0005d28c      0x170 libbb/lib.a(procps.o)
                0x0005d28c                read_cmdline
 .text.i64c     0x0005d3fc       0x38 libbb/lib.a(pw_encrypt.o)
 .text.crypt_make_salt
                0x0005d434       0x6c libbb/lib.a(pw_encrypt.o)
                0x0005d434                crypt_make_salt
 .text.crypt_make_pw_salt
                0x0005d4a0       0x94 libbb/lib.a(pw_encrypt.o)
                0x0005d4a0                crypt_make_pw_salt
 .text.pw_encrypt
                0x0005d534       0x2c libbb/lib.a(pw_encrypt.o)
                0x0005d534                pw_encrypt
 .text.read_key
                0x0005d560      0x358 libbb/lib.a(read_key.o)
                0x0005d560                read_key
 .text.read_key_ungets
                0x0005d8b8       0x38 libbb/lib.a(read_key.o)
                0x0005d8b8                read_key_ungets
 .text.nonblock_immune_read
                0x0005d8f0       0x78 libbb/lib.a(read_printf.o)
                0x0005d8f0                nonblock_immune_read
 .text.xmalloc_read
                0x0005d968       0xe0 libbb/lib.a(read_printf.o)
                0x0005d968                xmalloc_read
 .text.xmalloc_open_read_close
                0x0005da48       0x3c libbb/lib.a(read_printf.o)
                0x0005da48                xmalloc_open_read_close
 .text.xread    0x0005da84       0x34 libbb/lib.a(read_printf.o)
                0x0005da84                xread
 .text.true_action
                0x0005dab8        0x8 libbb/lib.a(recursive_action.o)
 .text.recursive_action
                0x0005dac0      0x20c libbb/lib.a(recursive_action.o)
                0x0005dac0                recursive_action
 .text.remove_file
                0x0005dccc      0x268 libbb/lib.a(remove_file.o)
                0x0005dccc                remove_file
 .text.count_strstr
                0x0005df34       0x44 libbb/lib.a(replace.o)
                0x0005df34                count_strstr
 .text.xmalloc_substitute_string
                0x0005df78       0x9c libbb/lib.a(replace.o)
                0x0005df78                xmalloc_substitute_string
 .text.run_shell
                0x0005e014      0x114 libbb/lib.a(run_shell.o)
                0x0005e014                run_shell
 .text.safe_gethostname
                0x0005e128       0x48 libbb/lib.a(safe_gethostname.o)
                0x0005e128                safe_gethostname
 .text.safe_poll
                0x0005e170       0x78 libbb/lib.a(safe_poll.o)
                0x0005e170                safe_poll
 .text.safe_strncpy
                0x0005e1e8       0x18 libbb/lib.a(safe_strncpy.o)
                0x0005e1e8                safe_strncpy
 .text.overlapping_strcpy
                0x0005e200       0x24 libbb/lib.a(safe_strncpy.o)
                0x0005e200                overlapping_strcpy
 .text.setup_environment
                0x0005e224      0x158 libbb/lib.a(setup_environment.o)
                0x0005e224                setup_environment
 .text.bb_simplify_abs_path_inplace
                0x0005e37c       0xbc libbb/lib.a(simplify_path.o)
                0x0005e37c                bb_simplify_abs_path_inplace
 .text.bb_simplify_path
                0x0005e438       0x50 libbb/lib.a(simplify_path.o)
                0x0005e438                bb_simplify_path
 .text.single_argv
                0x0005e488       0x58 libbb/lib.a(single_argv.o)
                0x0005e488                single_argv
 .text.skip_whitespace
                0x0005e4e0       0x24 libbb/lib.a(skip_whitespace.o)
                0x0005e4e0                skip_whitespace
 .text.skip_non_whitespace
                0x0005e504       0x2c libbb/lib.a(skip_whitespace.o)
                0x0005e504                skip_non_whitespace
 .text.skip_dev_pfx
                0x0005e530       0x34 libbb/lib.a(skip_whitespace.o)
                0x0005e530                skip_dev_pfx
 .text.bb_arg_max
                0x0005e564       0x18 libbb/lib.a(sysconf.o)
                0x0005e564                bb_arg_max
 .text.bb_clk_tck
                0x0005e57c        0x8 libbb/lib.a(sysconf.o)
                0x0005e57c                bb_clk_tck
 .text.get_signum
                0x0005e584      0x15c libbb/lib.a(u_signal_names.o)
                0x0005e584                get_signum
 .text.get_signame
                0x0005e6e0       0x44 libbb/lib.a(u_signal_names.o)
                0x0005e6e0                get_signame
 .text.print_signames
                0x0005e724       0x7c libbb/lib.a(u_signal_names.o)
                0x0005e724                print_signames
 .text.socket_want_pktinfo
                0x0005e7a0       0x38 libbb/lib.a(udp_io.o)
                0x0005e7a0                socket_want_pktinfo
 .text.recv_from_to
                0x0005e7d8      0x124 libbb/lib.a(udp_io.o)
                0x0005e7d8                recv_from_to
 .text.wcrtomb_internal
                0x0005e8fc       0x80 libbb/lib.a(unicode.o)
 .text.mbstowc_internal
                0x0005e97c       0x94 libbb/lib.a(unicode.o)
 .text.in_interval_table
                0x0005ea10       0x6c libbb/lib.a(unicode.o)
 .text.bb_wcrtomb
                0x0005ea7c        0x4 libbb/lib.a(unicode.o)
                0x0005ea7c                bb_wcrtomb
 .text.bb_wcstombs
                0x0005ea80       0x94 libbb/lib.a(unicode.o)
                0x0005ea80                bb_wcstombs
 .text.bb_mbstowcs
                0x0005eb14       0x54 libbb/lib.a(unicode.o)
                0x0005eb14                bb_mbstowcs
 .text.bb_wcwidth
                0x0005eb68      0x1fc libbb/lib.a(unicode.o)
                0x0005eb68                bb_wcwidth
 .text.unicode_conv_to_printable2
                0x0005ed64      0x110 libbb/lib.a(unicode.o)
 .text.unicode_strlen
                0x0005ee74       0x2c libbb/lib.a(unicode.o)
                0x0005ee74                unicode_strlen
 .text.unicode_strwidth
                0x0005eea0       0x1c libbb/lib.a(unicode.o)
                0x0005eea0                unicode_strwidth
 .text.unicode_conv_to_printable
                0x0005eebc        0xc libbb/lib.a(unicode.o)
                0x0005eebc                unicode_conv_to_printable
 .text.update_passwd
                0x0005eec8      0x42c libbb/lib.a(update_passwd.o)
                0x0005eec8                update_passwd
 .text.bb_uuencode
                0x0005f2f4       0x9c libbb/lib.a(uuencode.o)
                0x0005f2f4                bb_uuencode
 .text.decode_base64
                0x0005f390       0xdc libbb/lib.a(uuencode.o)
                0x0005f390                decode_base64
 .text.read_base64
                0x0005f46c      0x15c libbb/lib.a(uuencode.o)
                0x0005f46c                read_base64
 .text.spawn    0x0005f5c8       0xa0 libbb/lib.a(vfork_daemon_rexec.o)
                0x0005f5c8                spawn
 .text.spawn_and_wait
                0x0005f668       0x10 libbb/lib.a(vfork_daemon_rexec.o)
                0x0005f668                spawn_and_wait
 .text.bb_daemonize_or_rexec
                0x0005f678      0x114 libbb/lib.a(vfork_daemon_rexec.o)
                0x0005f678                bb_daemonize_or_rexec
 .text.bb_sanitize_stdio
                0x0005f78c        0x8 libbb/lib.a(vfork_daemon_rexec.o)
                0x0005f78c                bb_sanitize_stdio
 .text.xfdopen_helper
                0x0005f794       0x4c libbb/lib.a(wfopen.o)
 .text.fopen_or_warn
                0x0005f7e0       0x24 libbb/lib.a(wfopen.o)
                0x0005f7e0                fopen_or_warn
 .text.fopen_for_read
                0x0005f804       0x1c libbb/lib.a(wfopen.o)
                0x0005f804                fopen_for_read
 .text.xfopen_for_read
                0x0005f820       0x1c libbb/lib.a(wfopen.o)
                0x0005f820                xfopen_for_read
 .text.fopen_for_write
                0x0005f83c       0x1c libbb/lib.a(wfopen.o)
                0x0005f83c                fopen_for_write
 .text.xfopen_for_write
                0x0005f858       0x1c libbb/lib.a(wfopen.o)
                0x0005f858                xfopen_for_write
 .text.xfdopen_for_write
                0x0005f874        0xc libbb/lib.a(wfopen.o)
                0x0005f874                xfdopen_for_write
 .text.fopen_or_warn_stdin
                0x0005f880       0x60 libbb/lib.a(wfopen_input.o)
                0x0005f880                fopen_or_warn_stdin
 .text.xfopen_stdin
                0x0005f8e0       0x14 libbb/lib.a(wfopen_input.o)
                0x0005f8e0                xfopen_stdin
 .text.open_or_warn_stdin
                0x0005f8f4       0x4c libbb/lib.a(wfopen_input.o)
                0x0005f8f4                open_or_warn_stdin
 .text.xstrtoull_range_sfx
                0x0005f940      0x1ac libbb/lib.a(xatonum.o)
                0x0005f940                xstrtoull_range_sfx
 .text.xatoull_range
                0x0005faec       0x28 libbb/lib.a(xatonum.o)
                0x0005faec                xatoull_range
 .text.xatoull_sfx
                0x0005fb14       0x2c libbb/lib.a(xatonum.o)
                0x0005fb14                xatoull_sfx
 .text.xstrtoul_range_sfx
                0x0005fb40      0x150 libbb/lib.a(xatonum.o)
                0x0005fb40                xstrtoul_range_sfx
 .text.xstrtoul_range
                0x0005fc90       0x14 libbb/lib.a(xatonum.o)
                0x0005fc90                xstrtoul_range
 .text.xstrtoul
                0x0005fca4       0x18 libbb/lib.a(xatonum.o)
                0x0005fca4                xstrtoul
 .text.xatoul_range_sfx
                0x0005fcbc       0x24 libbb/lib.a(xatonum.o)
                0x0005fcbc                xatoul_range_sfx
 .text.xatoul_range
                0x0005fce0       0x24 libbb/lib.a(xatonum.o)
                0x0005fce0                xatoul_range
 .text.xatoul_sfx
                0x0005fd04       0x1c libbb/lib.a(xatonum.o)
                0x0005fd04                xatoul_sfx
 .text.xatoul   0x0005fd20        0x8 libbb/lib.a(xatonum.o)
                0x0005fd20                xatoul
 .text.xstrtol_range_sfx
                0x0005fd28       0xac libbb/lib.a(xatonum.o)
                0x0005fd28                xstrtol_range_sfx
 .text.xatol_range
                0x0005fdd4       0x24 libbb/lib.a(xatonum.o)
                0x0005fdd4                xatol_range
 .text.xatol    0x0005fdf8       0x20 libbb/lib.a(xatonum.o)
                0x0005fdf8                xatol
 .text.xatoi_positive
                0x0005fe18        0xc libbb/lib.a(xatonum.o)
                0x0005fe18                xatoi_positive
 .text.xatou16  0x0005fe24       0x18 libbb/lib.a(xatonum.o)
                0x0005fe24                xatou16
 .text.sockaddr2str
                0x0005fe3c       0xc8 libbb/lib.a(xconnect.o)
 .text.get_lsa  0x0005ff04       0x80 libbb/lib.a(xconnect.o)
 .text.setsockopt_int
                0x0005ff84       0x24 libbb/lib.a(xconnect.o)
                0x0005ff84                setsockopt_int
 .text.setsockopt_1
                0x0005ffa8        0x8 libbb/lib.a(xconnect.o)
                0x0005ffa8                setsockopt_1
 .text.setsockopt_SOL_SOCKET_int
                0x0005ffb0       0x14 libbb/lib.a(xconnect.o)
                0x0005ffb0                setsockopt_SOL_SOCKET_int
 .text.setsockopt_SOL_SOCKET_1
                0x0005ffc4        0x8 libbb/lib.a(xconnect.o)
                0x0005ffc4                setsockopt_SOL_SOCKET_1
 .text.setsockopt_reuseaddr
                0x0005ffcc        0x8 libbb/lib.a(xconnect.o)
                0x0005ffcc                setsockopt_reuseaddr
 .text.setsockopt_broadcast
                0x0005ffd4        0x8 libbb/lib.a(xconnect.o)
                0x0005ffd4                setsockopt_broadcast
 .text.setsockopt_keepalive
                0x0005ffdc        0x8 libbb/lib.a(xconnect.o)
                0x0005ffdc                setsockopt_keepalive
 .text.setsockopt_bindtodevice
                0x0005ffe4       0x6c libbb/lib.a(xconnect.o)
                0x0005ffe4                setsockopt_bindtodevice
 .text.get_sock_lsa
                0x00060050       0x1c libbb/lib.a(xconnect.o)
                0x00060050                get_sock_lsa
 .text.get_peer_lsa
                0x0006006c       0x1c libbb/lib.a(xconnect.o)
                0x0006006c                get_peer_lsa
 .text.xconnect
                0x00060088       0x5c libbb/lib.a(xconnect.o)
                0x00060088                xconnect
 .text.get_nport
                0x000600e4       0x24 libbb/lib.a(xconnect.o)
                0x000600e4                get_nport
 .text.set_nport
                0x00060108       0x1c libbb/lib.a(xconnect.o)
                0x00060108                set_nport
 .text.str2sockaddr
                0x00060124      0x2b8 libbb/lib.a(xconnect.o)
 .text.host_and_af2sockaddr
                0x000603dc        0x8 libbb/lib.a(xconnect.o)
                0x000603dc                host_and_af2sockaddr
 .text.xhost_and_af2sockaddr
                0x000603e4        0x8 libbb/lib.a(xconnect.o)
                0x000603e4                xhost_and_af2sockaddr
 .text.host2sockaddr
                0x000603ec        0xc libbb/lib.a(xconnect.o)
                0x000603ec                host2sockaddr
 .text.xhost2sockaddr
                0x000603f8        0xc libbb/lib.a(xconnect.o)
                0x000603f8                xhost2sockaddr
 .text.xdotted2sockaddr
                0x00060404        0xc libbb/lib.a(xconnect.o)
                0x00060404                xdotted2sockaddr
 .text.xsocket_type
                0x00060410       0x80 libbb/lib.a(xconnect.o)
                0x00060410                xsocket_type
 .text.create_and_bind_or_die
                0x00060490       0x98 libbb/lib.a(xconnect.o)
 .text.create_and_bind_stream_or_die
                0x00060528        0x8 libbb/lib.a(xconnect.o)
                0x00060528                create_and_bind_stream_or_die
 .text.xmalloc_sockaddr2host_noport
                0x00060530        0x8 libbb/lib.a(xconnect.o)
                0x00060530                xmalloc_sockaddr2host_noport
 .text.xmalloc_sockaddr2hostonly_noport
                0x00060538        0x8 libbb/lib.a(xconnect.o)
                0x00060538                xmalloc_sockaddr2hostonly_noport
 .text.xmalloc_sockaddr2dotted
                0x00060540        0x8 libbb/lib.a(xconnect.o)
                0x00060540                xmalloc_sockaddr2dotted
 .text.xmalloc_sockaddr2dotted_noport
                0x00060548        0x8 libbb/lib.a(xconnect.o)
                0x00060548                xmalloc_sockaddr2dotted_noport
 .text.xrealloc_getcwd_or_warn
                0x00060550       0x90 libbb/lib.a(xgetcwd.o)
                0x00060550                xrealloc_getcwd_or_warn
 .text.xmalloc_readlink
                0x000605e0       0x64 libbb/lib.a(xreadlink.o)
                0x000605e0                xmalloc_readlink
 .text.xmalloc_follow_symlinks
                0x00060644       0xcc libbb/lib.a(xreadlink.o)
                0x00060644                xmalloc_follow_symlinks
 .text.xmalloc_readlink_or_warn
                0x00060710       0x6c libbb/lib.a(xreadlink.o)
                0x00060710                xmalloc_readlink_or_warn
 .text.xmalloc_realpath
                0x0006077c        0x8 libbb/lib.a(xreadlink.o)
                0x0006077c                xmalloc_realpath
 .text.xrealloc_vector_helper
                0x00060784       0x5c libbb/lib.a(xrealloc_vector.o)
                0x00060784                xrealloc_vector_helper
 .text.regcomp_or_errmsg
                0x000607e0       0x50 libbb/lib.a(xregcomp.o)
                0x000607e0                regcomp_or_errmsg
 .text.xregcomp
                0x00060830       0x34 libbb/lib.a(xregcomp.o)
                0x00060830                xregcomp
 .text.askpass_timeout
                0x00060864        0x4 libbb/lib.a(bb_askpass.o)
 .text.bb_ask   0x00060868      0x19c libbb/lib.a(bb_askpass.o)
                0x00060868                bb_ask
 .text.bb_bswap_64
                0x00060a04       0x10 libbb/lib.a(bb_bswap_64.o)
                0x00060a04                bb_bswap_64
 .text.bb_pstrcmp
                0x00060a14        0xc libbb/lib.a(bb_qsort.o)
                0x00060a14                bb_pstrcmp
 .text.qsort_string_vector
                0x00060a20       0x20 libbb/lib.a(bb_qsort.o)
                0x00060a20                qsort_string_vector
 .text.bb_perror_nomsg
                0x00060a40        0x8 libbb/lib.a(perror_nomsg.o)
                0x00060a40                bb_perror_nomsg
 .text.get_S    0x00060a48      0x144 libpwdgrp/lib.a(pwd_grp.o)
 .text.tokenize
                0x00060b8c       0xd4 libpwdgrp/lib.a(pwd_grp.o)
 .text.convert_to_struct
                0x00060c60      0x1b8 libpwdgrp/lib.a(pwd_grp.o)
 .text.parse_common
                0x00060e18      0x10c libpwdgrp/lib.a(pwd_grp.o)
 .text.getgrouplist_internal
                0x00060f24      0x110 libpwdgrp/lib.a(pwd_grp.o)
 .text.parse_file
                0x00061034       0x48 libpwdgrp/lib.a(pwd_grp.o)
 .text.getXXnam_r
                0x0006107c       0xb8 libpwdgrp/lib.a(pwd_grp.o)
 .text.massage_data_for_non_r_func
                0x00061134       0x84 libpwdgrp/lib.a(pwd_grp.o)
 .text.getXXnam
                0x000611b8       0x38 libpwdgrp/lib.a(pwd_grp.o)
 .text.bb_internal_getspnam_r
                0x000611f0       0x14 libpwdgrp/lib.a(pwd_grp.o)
                0x000611f0                bb_internal_getspnam_r
 .text.bb_internal_getpwnam
                0x00061204        0x8 libpwdgrp/lib.a(pwd_grp.o)
                0x00061204                bb_internal_getpwnam
 .text.bb_internal_getgrnam
                0x0006120c        0x8 libpwdgrp/lib.a(pwd_grp.o)
                0x0006120c                bb_internal_getgrnam
 .text.bb_internal_getpwuid
                0x00061214       0x14 libpwdgrp/lib.a(pwd_grp.o)
                0x00061214                bb_internal_getpwuid
 .text.bb_internal_getgrgid
                0x00061228       0x14 libpwdgrp/lib.a(pwd_grp.o)
                0x00061228                bb_internal_getgrgid
 .text.bb_internal_endgrent
                0x0006123c       0x48 libpwdgrp/lib.a(pwd_grp.o)
                0x0006123c                bb_internal_endgrent
 .text.bb_internal_initgroups
                0x00061284       0x3c libpwdgrp/lib.a(pwd_grp.o)
                0x00061284                bb_internal_initgroups
 .text.get_uidgid
                0x000612c0      0x110 libpwdgrp/lib.a(uidgid_get.o)
                0x000612c0                get_uidgid
 .text.xget_uidgid
                0x000613d0       0x34 libpwdgrp/lib.a(uidgid_get.o)
                0x000613d0                xget_uidgid
 .text.parse_chown_usergroup_or_die
                0x00061404       0xb8 libpwdgrp/lib.a(uidgid_get.o)
                0x00061404                parse_chown_usergroup_or_die
 .text          0x000614bc       0x28 /home/paldier/k3_384/release/src-rt-6.x.4708/toolchains/hndtools-arm-linux-2.6.36-uclibc-4.5.3/bin/../arm-brcm-linux-uclibcgnueabi/sysroot/usr/lib/uclibc_nonshared.a(atexit.os)
                0x000614bc                atexit
 *(SORT(.gnu.warning))
 *(SORT(.glue_7t))
 .glue_7t       0x00000000        0x0 linker stubs
 *(SORT(.glue_7))
 .glue_7        0x00000000        0x0 linker stubs
 *(SORT(.vfp11_veneer))
 .vfp11_veneer  0x00000000        0x0 linker stubs
 *(SORT(.v4_bx))
 .v4_bx         0x00000000        0x0 linker stubs

.fini           0x000614e4       0x10
 *(SORT(.fini))
 .fini          0x000614e4        0xc /home/paldier/k3_384/release/src-rt-6.x.4708/toolchains/hndtools-arm-linux-2.6.36-uclibc-4.5.3/bin/../arm-brcm-linux-uclibcgnueabi/sysroot/usr/lib/crti.o
                0x000614e4                _fini
 .fini          0x000614f0        0x4 /home/paldier/k3_384/release/src-rt-6.x.4708/toolchains/hndtools-arm-linux-2.6.36-uclibc-4.5.3/bin/../arm-brcm-linux-uclibcgnueabi/sysroot/usr/lib/crtn.o
                0x000614f4                PROVIDE (__etext, .)
                0x000614f4                PROVIDE (_etext, .)
                0x000614f4                PROVIDE (etext, .)

.rodata         0x000614f4    0x106ac
 *(SORT(.rodata) SORT(.rodata.*) SORT(.gnu.linkonce.r.*))
 .rodata.const_int_0
                0x000614f4        0x4 libbb/lib.a(messages.o)
                0x000614f4                const_int_0
 .rodata.arp_masks.7414
                0x000614f8        0xc networking/lib.a(arp.o)
 .rodata.flagvals
                0x00061504       0x2c networking/lib.a(route.o)
 .rodata.flags_ipvx
                0x00061530        0x8 networking/lib.a(route.o)
 .rodata.filter_instr.7833
                0x00061538       0x48 networking/udhcp/lib.a(dhcpc.o)
 .rodata.dhcp_optflags
                0x00061580       0x44 networking/udhcp/lib.a(common.o)
                0x00061580                dhcp_optflags
 .rodata.CSWTCH.612
                0x000615c4        0x8 shell/lib.a(ash.o)
 .rodata.CSWTCH.596
                0x000615cc       0x30 shell/lib.a(ash.o)
 .rodata.ts.7356
                0x000615fc        0x8 util-linux/lib.a(mdev.o)
 .rodata.mount_options
                0x00061604       0xa0 util-linux/lib.a(mount.o)
 .rodata.filesystems.7253
                0x000616a4       0x24 util-linux/lib.a(mount.o)
 .rodata.gzip_level_config.7746
                0x000616c8       0x18 archival/lib.a(gzip.o)
 .rodata.prefilled.7397
                0x000616e0       0x30 archival/lib.a(tar.o)
 .rodata.opt_flags
                0x00061710       0x64 coreutils/lib.a(ls.o)
 .rodata.modes_cubp
                0x00061774        0xc coreutils/lib.a(mknod.o)
 .rodata.sfx    0x00061780       0x28 coreutils/lib.a(sleep.o)
 .rodata.ops_table
                0x000617a8       0x50 coreutils/lib.a(test.o)
 .rodata.no_op.7203
                0x000617f8        0x4 coreutils/lib.a(test.o)
 .rodata.utsname_offset
                0x000617fc       0x10 coreutils/lib.a(uname.o)
 .rodata.tokeninfo
                0x0006180c      0x190 editors/lib.a(awk.o)
 .rodata.bb_null_long_options
                0x0006199c       0x10 libbb/lib.a(getopt32.o)
 .rodata.C_array.7163
                0x000619ac      0x100 libbb/lib.a(hash_md5_sha.o)
 .rodata.who_mask.7130
                0x00061aac       0x10 libbb/lib.a(parse_mode.o)
 .rodata.perm_mask.7131
                0x00061abc       0x18 libbb/lib.a(parse_mode.o)
 .rodata.combining.7270
                0x00061ad4       0x94 libbb/lib.a(unicode.o)
 .rodata.combining0x10000.7402
                0x00061b68       0x28 libbb/lib.a(unicode.o)
 .rodata.combining1.7271
                0x00061b90       0xb8 libbb/lib.a(unicode.o)
 .rodata.cwbkMG_suffixes
                0x00061c48       0x80 libbb/lib.a(xatonum.o)
                0x00061c48                cwbkMG_suffixes
 .rodata.bkm_suffixes
                0x00061cc8       0x20 libbb/lib.a(xatonum.o)
                0x00061cc8                bkm_suffixes
 .rodata.applet_nameofs
                0x00061ce8        0x6 libbb/lib.a(appletlib.o)
                0x00061ce8                applet_nameofs
 .rodata.ife_print_flags_mask.7543
                0x00061cee       0x1a networking/lib.a(interface.o)
 .rodata.MAC_BCAST_ADDR
                0x00061d08        0x6 networking/udhcp/lib.a(common.o)
                0x00061d08                MAC_BCAST_ADDR
 .rodata.S_I_T  0x00061d0e       0x18 shell/lib.a(ash.o)
 .rodata.cpdist
                0x00061d26       0x3c archival/libarchive/lib.a(decompress_gunzip.o)
 .rodata.cplens
                0x00061d62       0x3e archival/libarchive/lib.a(decompress_gunzip.o)
 .rodata.mask_bits
                0x00061da0       0x22 archival/libarchive/lib.a(decompress_gunzip.o)
 .rodata.PRIMES
                0x00061dc2        0xa editors/lib.a(awk.o)
 .rodata.applet_names
                0x00061dcc      0x2be libbb/lib.a(appletlib.o)
                0x00061dcc                applet_names
 .rodata.usage_messages
                0x0006208a     0x72ce libbb/lib.a(appletlib.o)
 .rodata.str1.1
                0x00069358      0x270 libbb/lib.a(appletlib.o)
                                0x27c (size before relaxing)
 .rodata.applet_suid
                0x000695c8       0x1d libbb/lib.a(appletlib.o)
                0x000695c8                applet_suid
 .rodata.bb_msg_requires_arg
                0x000695e5       0x18 libbb/lib.a(messages.o)
                0x000695e5                bb_msg_requires_arg
 .rodata.bb_banner
                0x000695fd       0x2a libbb/lib.a(messages.o)
                0x000695fd                bb_banner
 .rodata.bb_msg_invalid_arg_to
                0x00069627       0x1e libbb/lib.a(messages.o)
                0x00069627                bb_msg_invalid_arg_to
 .rodata.bb_msg_you_must_be_root
                0x00069645       0x11 libbb/lib.a(messages.o)
                0x00069645                bb_msg_you_must_be_root
 .rodata.bb_hexdigits_upcase
                0x00069656       0x11 libbb/lib.a(messages.o)
                0x00069656                bb_hexdigits_upcase
 .rodata.bb_PATH_root_path
                0x00069667       0x36 libbb/lib.a(messages.o)
                0x00069667                bb_PATH_root_path
 .rodata.bb_msg_standard_input
                0x0006969d        0xf libbb/lib.a(messages.o)
                0x0006969d                bb_msg_standard_input
 .rodata.bb_default_login_shell
                0x000696ac        0x9 libbb/lib.a(messages.o)
                0x000696ac                bb_default_login_shell
 .rodata.bb_msg_can_not_create_raw_socket
                0x000696b5       0x18 libbb/lib.a(messages.o)
                0x000696b5                bb_msg_can_not_create_raw_socket
 .rodata.bb_msg_unknown
                0x000696cd        0xa libbb/lib.a(messages.o)
                0x000696cd                bb_msg_unknown
 .rodata.bb_msg_invalid_date
                0x000696d7       0x12 libbb/lib.a(messages.o)
                0x000696d7                bb_msg_invalid_date
 .rodata.bb_msg_perm_denied_are_you_root
                0x000696e9       0x22 libbb/lib.a(messages.o)
                0x000696e9                bb_msg_perm_denied_are_you_root
 .rodata.bb_msg_memory_exhausted
                0x0006970b        0xe libbb/lib.a(messages.o)
                0x0006970b                bb_msg_memory_exhausted
 .rodata.bb_busybox_exec_path
                0x00069719        0xf libbb/lib.a(messages.o)
                0x00069719                bb_busybox_exec_path
 .rodata.bb_msg_standard_output
                0x00069728       0x10 libbb/lib.a(messages.o)
                0x00069728                bb_msg_standard_output
 .rodata.str1.1
                0x00000000      0x270 libbb/lib.a(verror_msg.o)
                                  0x6 (size before relaxing)
 .rodata.str1.1
                0x00069738       0x16 libbb/lib.a(xfuncs.o)
 .rodata.str1.1
                0x0006974e      0x180 libbb/lib.a(xfuncs_printf.o)
                                0x189 (size before relaxing)
 .rodata.str1.1
                0x000698ce       0x22 libbb/lib.a(copyfd.o)
 .rodata.str1.1
                0x00000000        0x3 libbb/lib.a(perror_msg.o)
 .rodata.str1.1
                0x000698f0       0x91 libbb/lib.a(time.o)
                                 0xb5 (size before relaxing)
 .rodata.str1.1
                0x00069981       0x8d loginutils/lib.a(chpasswd.o)
                                 0x90 (size before relaxing)
 .rodata.chpasswd_longopts
                0x00069a0e       0x22 loginutils/lib.a(chpasswd.o)
 .rodata.str1.1
                0x00069a30      0x12f loginutils/lib.a(login.o)
                                0x130 (size before relaxing)
 .rodata.DowAry
                0x00069b5f       0x16 miscutils/lib.a(crond.o)
 .rodata.str1.1
                0x00069b75      0x202 miscutils/lib.a(crond.o)
                                0x23f (size before relaxing)
 .rodata.MonAry
                0x00069d77       0x25 miscutils/lib.a(crond.o)
 .rodata.str1.1
                0x00069d9c       0x22 miscutils/lib.a(devmem.o)
 .rodata.bhwl.7143
                0x00069dbe        0x5 miscutils/lib.a(devmem.o)
 .rodata.sizes.7144
                0x00069dc3        0x5 miscutils/lib.a(devmem.o)
 .rodata.str1.1
                0x00069dc8      0x11b miscutils/lib.a(flash_eraseall.o)
 .rodata.to_prio
                0x00069ee3       0x1f miscutils/lib.a(ionice.o)
 .rodata.str1.1
                0x00069f02       0x37 miscutils/lib.a(ionice.o)
                                 0x3b (size before relaxing)
 .rodata.controls
                0x00069f39       0x21 miscutils/lib.a(less.o)
 .rodata.ctrlconv
                0x00069f5a       0x21 miscutils/lib.a(less.o)
 .rodata.str1.1
                0x00069f7b       0xe4 miscutils/lib.a(less.o)
                                0x108 (size before relaxing)
 .rodata.str1.1
                0x0006a05f       0x19 miscutils/lib.a(strings.o)
                                 0x1b (size before relaxing)
 .rodata.str1.1
                0x0006a078       0x29 modutils/lib.a(insmod.o)
                                 0x2d (size before relaxing)
 .rodata.str1.1
                0x0006a0a1       0x78 modutils/lib.a(lsmod.o)
                                 0x7d (size before relaxing)
 .rodata.modprobe_longopts
                0x0006a119       0x10 modutils/lib.a(modprobe.o)
 .rodata.str1.1
                0x0006a129       0xeb modutils/lib.a(modprobe.o)
                                0x128 (size before relaxing)
 .rodata.str1.1
                0x0006a214       0xb2 modutils/lib.a(modutils.o)
                                 0xb3 (size before relaxing)
 .rodata.str1.1
                0x0006a2c6        0xb modutils/lib.a(rmmod.o)
                                 0x24 (size before relaxing)
 .rodata.options
                0x0006a2d1       0x2e networking/lib.a(arp.o)
 .rodata.str1.1
                0x0006a2ff      0x1fe networking/lib.a(arp.o)
                                0x20e (size before relaxing)
 .rodata.arp_labels.7415
                0x0006a4fd       0x10 networking/lib.a(arp.o)
 .rodata.str1.1
                0x0006a50d       0x74 networking/lib.a(ether-wake.o)
                                 0x83 (size before relaxing)
 .rodata        0x0006a581        0x7 networking/lib.a(ifconfig.o)
 .rodata.str1.1
                0x0006a588      0x10b networking/lib.a(ifconfig.o)
                                0x12d (size before relaxing)
 .rodata.str1.1
                0x0006a693      0x446 networking/lib.a(interface.o)
                                0x464 (size before relaxing)
 .rodata.TRext  0x0006aad9        0xf networking/lib.a(interface.o)
 .rodata.ife_print_flags_strs.7542
                0x0006aae8       0x6a networking/lib.a(interface.o)
 .rodata.str1.1
                0x0006ab52      0x306 networking/lib.a(netstat.o)
                                0x337 (size before relaxing)
 .rodata.str1.1
                0x0006ae58       0x3c networking/lib.a(nslookup.o)
 .rodata.str1.1
                0x0006ae94      0x2f3 networking/lib.a(ping.o)
                                0x30b (size before relaxing)
 .rodata.tbl_verb
                0x0006b187       0x15 networking/lib.a(route.o)
 .rodata.str1.1
                0x0006b19c      0x240 networking/lib.a(route.o)
                                0x274 (size before relaxing)
 .rodata.tbl_ipvx
                0x0006b3dc       0x68 networking/lib.a(route.o)
 .rodata.flagchars
                0x0006b444        0xc networking/lib.a(route.o)
 .rodata.tbl_hash_net_host
                0x0006b450        0xf networking/lib.a(route.o)
 .rodata.iacs_to_send.7210
                0x0006b45f        0xc networking/lib.a(telnetd.o)
 .rodata.str1.1
                0x0006b46b       0x2c networking/lib.a(telnetd.o)
                                 0x50 (size before relaxing)
 .rodata.IACIAC.7190
                0x0006b497        0x2 networking/lib.a(telnetd.o)
 .rodata.str1.1
                0x0006b499      0x2d1 networking/lib.a(traceroute.o)
                                0x36f (size before relaxing)
 .rodata.str1.1
                0x0006b76a       0x13 networking/lib.a(vconfig.o)
 .rodata.name_types
                0x0006b77d       0x4c networking/lib.a(vconfig.o)
 .rodata.cmds   0x0006b7c9       0x50 networking/lib.a(vconfig.o)
 .rodata.str1.1
                0x0006b819       0xb7 networking/lib.a(zcip.o)
                                 0xd6 (size before relaxing)
 .rodata.len_of_option_as_string
                0x0006b8d0        0xc networking/udhcp/lib.a(dhcpc.o)
 .rodata.str1.1
                0x0006b8dc      0x2de networking/udhcp/lib.a(dhcpc.o)
                                0x306 (size before relaxing)
 .rodata.udhcpc_longopts
                0x0006bbba       0xee networking/udhcp/lib.a(dhcpc.o)
 .rodata.str1.1
                0x0006bca8       0x20 networking/udhcp/lib.a(packet.o)
                                 0x54 (size before relaxing)
 .rodata.str1.1
                0x0006bcc8       0x12 networking/udhcp/lib.a(signalpipe.o)
 .rodata.str1.1
                0x0006bcda       0x2e networking/udhcp/lib.a(socket.o)
                                 0x56 (size before relaxing)
 .rodata.str1.1
                0x0006bd08       0x21 networking/udhcp/lib.a(arpping.o)
 .rodata.dhcp_option_lengths
                0x0006bd29        0xc networking/udhcp/lib.a(common.o)
                0x0006bd29                dhcp_option_lengths
 .rodata.str1.1
                0x0006bd35       0xdc networking/udhcp/lib.a(common.o)
 .rodata.dhcp_option_strings
                0x0006be11       0xeb networking/udhcp/lib.a(common.o)
                0x0006be11                dhcp_option_strings
 .rodata.str1.1
                0x0006befc       0xa7 procps/lib.a(free.o)
                                 0xae (size before relaxing)
 .rodata.str1.1
                0x0006bfa3       0x86 procps/lib.a(kill.o)
                                 0x8a (size before relaxing)
 .rodata.str1.1
                0x00000000       0x86 procps/lib.a(pidof.o)
                                  0x5 (size before relaxing)
 .rodata.str1.1
                0x0006c029       0x46 procps/lib.a(ps.o)
 .rodata.str1.1
                0x0006c06f       0x10 procps/lib.a(renice.o)
                                 0x24 (size before relaxing)
 .rodata.Xetpriority_msg.7139
                0x0006c07f        0xd procps/lib.a(renice.o)
 .rodata.opts.7147
                0x0006c08c        0x7 procps/lib.a(renice.o)
 .rodata.str1.1
                0x0006c093      0x1ef procps/lib.a(top.o)
                                0x22a (size before relaxing)
 .rodata.fmt.7217
                0x0006c282       0x2e procps/lib.a(top.o)
 .rodata.fields.7288
                0x0006c2b0       0x6a procps/lib.a(top.o)
 .rodata.str1.1
                0x0006c31a       0x5b procps/lib.a(uptime.o)
                                 0x5e (size before relaxing)
 .rodata.str1.1
                0x0006c375       0x28 procps/lib.a(watch.o)
                                 0x2e (size before relaxing)
 .rodata        0x0006c39d       0x72 shell/lib.a(ash.o)
 .rodata.dolatstr
                0x0006c40f        0x7 shell/lib.a(ash.o)
 .rodata.C_escapes.9899
                0x0006c416       0x12 shell/lib.a(ash.o)
 .rodata.syntax_index_table.7891
                0x0006c428       0x1a shell/lib.a(ash.o)
 .rodata.permuser.10250
                0x0006c442        0x3 shell/lib.a(ash.o)
 .rodata.nodesize
                0x0006c445       0x1b shell/lib.a(ash.o)
 .rodata.xxreadtoken_chars
                0x0006c460        0x7 shell/lib.a(ash.o)
 .rodata.spec_symbls.7890
                0x0006c467       0x1b shell/lib.a(ash.o)
 .rodata.spclchars.8527
                0x0006c482        0x9 shell/lib.a(ash.o)
 .rodata.timescmd_str
                0x0006c48b        0x9 shell/lib.a(ash.o)
 .rodata.xxreadtoken_tokens
                0x0006c494        0xa shell/lib.a(ash.o)
 .rodata.types.9989
                0x0006c49e        0x6 shell/lib.a(ash.o)
 .rodata.metachars.8829
                0x0006c4a4        0x4 shell/lib.a(ash.o)
 .rodata.qchars.8392
                0x0006c4a8        0x4 shell/lib.a(ash.o)
 .rodata.str1.1
                0x0006c4ac      0x688 shell/lib.a(ash.o)
                                0x714 (size before relaxing)
 .rodata.op_tokens
                0x0006cb34       0x8d shell/lib.a(math.o)
 .rodata.str1.1
                0x0006cbc1       0x75 shell/lib.a(math.o)
                                 0x79 (size before relaxing)
 .rodata.str1.1
                0x0006cc36      0x14b shell/lib.a(shell_common.o)
                                0x18a (size before relaxing)
 .rodata.defifsvar
                0x0006cd81        0x8 shell/lib.a(shell_common.o)
                0x0006cd81                defifsvar
 .rodata.ulimit_opt_string
                0x0006cd89       0x2c shell/lib.a(shell_common.o)
 .rodata.str1.1
                0x0006cdb5       0x6b sysklogd/lib.a(klogd.o)
                                 0x6e (size before relaxing)
 .rodata.str1.1
                0x0006ce20      0x1c4 sysklogd/lib.a(syslogd_and_logger.o)
                                0x20b (size before relaxing)
 .rodata.str1.1
                0x0006cfe4       0x15 util-linux/lib.a(dmesg.o)
 .rodata        0x0006cff9        0x7 util-linux/lib.a(fdisk.o)
 .rodata.msg_part_already_defined
                0x0006d000       0x3d util-linux/lib.a(fdisk.o)
 .rodata.str1.1
                0x0006d03d     0x11ac util-linux/lib.a(fdisk.o)
                               0x11f9 (size before relaxing)
 .rodata.msg_building_new_label
                0x0006e1e9       0x8f util-linux/lib.a(fdisk.o)
 .rodata.str1.1
                0x0006e278       0x2d util-linux/lib.a(flock.o)
                                 0x40 (size before relaxing)
 .rodata.getopt_longopts.7145
                0x0006e2a5       0x2a util-linux/lib.a(flock.o)
 .rodata.str1.1
                0x0006e2cf      0x702 util-linux/lib.a(fsck_minix.o)
                                0x736 (size before relaxing)
 .rodata.str1.1
                0x0006e9d1       0x5f util-linux/lib.a(lsusb.o)
 .rodata.str1.1
                0x0006ea30      0x185 util-linux/lib.a(mdev.o)
                                0x1a6 (size before relaxing)
 .rodata.keywords
                0x0006ebb5        0xc util-linux/lib.a(mdev.o)
 .rodata.SWAPSPACE2
                0x0006ebc1        0xa util-linux/lib.a(mkswap.o)
 .rodata.str1.1
                0x0006ebcb       0x56 util-linux/lib.a(mkswap.o)
                                 0x5a (size before relaxing)
 .rodata.str1.1
                0x0006ec21       0x5e util-linux/lib.a(more.o)
                                 0x6a (size before relaxing)
 .rodata.str1.1
                0x0006ec7f      0x11d util-linux/lib.a(mount.o)
                                0x140 (size before relaxing)
 .rodata.mount_option_str
                0x0006ed9c      0x13e util-linux/lib.a(mount.o)
 .rodata.str1.1
                0x0006eeda       0x16 util-linux/lib.a(swaponoff.o)
                                 0x26 (size before relaxing)
 .rodata.str1.1
                0x0006eef0       0x56 util-linux/lib.a(umount.o)
                                 0x65 (size before relaxing)
 .rodata.str1.1
                0x0006ef46       0x24 util-linux/volume_id/lib.a(get_devname.o)
                                 0x2d (size before relaxing)
 .rodata.str1.1
                0x0006ef6a       0x33 util-linux/volume_id/lib.a(fat.o)
                                 0x38 (size before relaxing)
 .rodata        0x0006ef9d       0x11 util-linux/volume_id/lib.a(hfs.o)
 .rodata.str1.1
                0x0006efae       0x34 util-linux/volume_id/lib.a(linux_swap.o)
 .rodata.str1.1
                0x00000000       0x34 util-linux/volume_id/lib.a(ntfs.o)
                                  0xa (size before relaxing)
 .rodata.str1.1
                0x0006efe2       0x78 util-linux/volume_id/lib.a(util.o)
 .rodata.str1.1
                0x0006f05a       0x64 archival/lib.a(bbunzip.o)
                                 0x74 (size before relaxing)
 .rodata.extra_lbits
                0x0006f0be       0x1d archival/lib.a(gzip.o)
 .rodata.extra_blbits
                0x0006f0db       0x13 archival/lib.a(gzip.o)
 .rodata.str1.1
                0x0006f0ee       0x11 archival/lib.a(gzip.o)
                                 0x14 (size before relaxing)
 .rodata.bl_order
                0x0006f0ff       0x13 archival/lib.a(gzip.o)
 .rodata.extra_dbits
                0x0006f112       0x1e archival/lib.a(gzip.o)
 .rodata.str1.1
                0x0006f130      0x124 archival/lib.a(tar.o)
                                0x140 (size before relaxing)
 .rodata.extn.7434
                0x0006f254        0xa archival/lib.a(unzip.o)
 .rodata.str1.1
                0x0006f25e      0x1e9 archival/lib.a(unzip.o)
                                0x211 (size before relaxing)
 .rodata.str1.1
                0x0006f447       0xc4 archival/libarchive/lib.a(data_extract_all.o)
 .rodata.str1.1
                0x0006f50b       0x1a archival/libarchive/lib.a(decompress_bunzip2.o)
 .rodata.cpdext
                0x0006f525       0x1e archival/libarchive/lib.a(decompress_gunzip.o)
 .rodata.cplext
                0x0006f543       0x1f archival/libarchive/lib.a(decompress_gunzip.o)
 .rodata.str1.1
                0x0006f562       0x37 archival/libarchive/lib.a(decompress_gunzip.o)
                                 0x4c (size before relaxing)
 .rodata.border
                0x0006f599       0x13 archival/libarchive/lib.a(decompress_gunzip.o)
 .rodata        0x0006f5ac        0x5 archival/libarchive/lib.a(get_header_tar.o)
 .rodata.str1.1
                0x0006f5b1       0xb6 archival/libarchive/lib.a(get_header_tar.o)
 .rodata.str1.1
                0x0006f667       0x36 archival/libarchive/lib.a(header_verbose_list.o)
 .rodata.str1.1
                0x0006f69d       0x4b archival/libarchive/lib.a(open_transformer.o)
                                 0x51 (size before relaxing)
 .rodata.str1.1
                0x0006f6e8        0xd archival/libarchive/lib.a(seek_by_jump.o)
 .rodata.str1.1
                0x0006f6f5       0x2f archival/libarchive/lib.a(unsafe_prefix.o)
 .rodata.str1.1
                0x00000000        0x7 console-tools/lib.a(clear.o)
 .rodata.str1.1
                0x0006f724        0xc console-tools/lib.a(setconsole.o)
                                 0x24 (size before relaxing)
 .rodata.str1.1
                0x00000000        0xc coreutils/lib.a(basename.o)
                                  0x3 (size before relaxing)
 .rodata.str1.1
                0x00000000        0xc coreutils/lib.a(cat.o)
                                  0x2 (size before relaxing)
 .rodata.str1.1
                0x0006f730       0x15 coreutils/lib.a(chmod.o)
                                 0x18 (size before relaxing)
 .rodata.str1.1
                0x0006f745        0x3 coreutils/lib.a(chown.o)
                                  0x6 (size before relaxing)
 .rodata.str1.1
                0x0006f748       0x2b coreutils/lib.a(cp.o)
 .rodata.optstring
                0x0006f773        0xb coreutils/lib.a(cut.o)
 .rodata._op_on_field.7189
                0x0006f77e       0x1f coreutils/lib.a(cut.o)
 .rodata.str1.1
                0x0006f79d       0xd5 coreutils/lib.a(cut.o)
                                 0xd9 (size before relaxing)
 .rodata.isoformats.7158
                0x0006f872       0x1c coreutils/lib.a(date.o)
 .rodata.str1.1
                0x0006f88e       0x8f coreutils/lib.a(date.o)
                                 0x9a (size before relaxing)
 .rodata.date_longopts
                0x0006f91d       0x35 coreutils/lib.a(date.o)
 .rodata.str1.1
                0x0006f952       0x5f coreutils/lib.a(dd.o)
 .rodata.iflag_words.7185
                0x0006f9b1        0xc coreutils/lib.a(dd.o)
 .rodata.conv_words.7184
                0x0006f9bd       0x21 coreutils/lib.a(dd.o)
 .rodata.keywords.7183
                0x0006f9de       0x2d coreutils/lib.a(dd.o)
 .rodata.str1.1
                0x0006fa0b       0xcd coreutils/lib.a(df.o)
                                 0xe3 (size before relaxing)
 .rodata.str1.1
                0x0006fad8       0x36 coreutils/lib.a(du.o)
                                 0x4e (size before relaxing)
 .rodata.str1.1
                0x00000000        0xc coreutils/lib.a(echo.o)
 .rodata.str1.1
                0x0006fb0e       0x10 coreutils/lib.a(env.o)
 .rodata.keywords.7318
                0x0006fb1e       0x21 coreutils/lib.a(expr.o)
 .rodata.str1.1
                0x0006fb3f       0xbf coreutils/lib.a(expr.o)
                                 0xe4 (size before relaxing)
 .rodata.str1.1
                0x00000000       0xbf coreutils/lib.a(fsync.o)
                                  0x2 (size before relaxing)
 .rodata.head_opts
                0x0006fbfe        0x7 coreutils/lib.a(head.o)
 .rodata.str1.1
                0x0006fc05       0x23 coreutils/lib.a(head.o)
                                 0x25 (size before relaxing)
 .rodata.str1.1
                0x0006fc28       0x41 coreutils/lib.a(ln.o)
                                 0x4b (size before relaxing)
 .rodata        0x0006fc69       0x33 coreutils/lib.a(ls.o)
 .rodata.ls_longopts.7440
                0x0006fc9c        0x9 coreutils/lib.a(ls.o)
 .rodata.ls_options
                0x0006fca5       0x20 coreutils/lib.a(ls.o)
 .rodata.str1.1
                0x0006fcc5       0xbb coreutils/lib.a(ls.o)
                                 0xda (size before relaxing)
 .rodata.color_str.7441
                0x0006fd80       0x22 coreutils/lib.a(ls.o)
 .rodata.str1.1
                0x0006fda2       0x74 coreutils/lib.a(md5_sha1_sum.o)
                                 0x9b (size before relaxing)
 .rodata.str1.1
                0x0006fe16        0x5 coreutils/lib.a(mkdir.o)
                                 0x17 (size before relaxing)
 .rodata.modes_chars
                0x0006fe1b        0x8 coreutils/lib.a(mknod.o)
 .rodata.fmt.7157
                0x0006fe23       0x2d coreutils/lib.a(mv.o)
 .rodata.str1.1
                0x0006fe50       0x55 coreutils/lib.a(mv.o)
                                 0x56 (size before relaxing)
 .rodata.str1.1
                0x0006fea5       0x10 coreutils/lib.a(nice.o)
                                 0x14 (size before relaxing)
 .rodata.str1.1
                0x0006feb5       0x21 coreutils/lib.a(nohup.o)
                                 0x30 (size before relaxing)
 .rodata.format_chars.7219
                0x0006fed6        0xe coreutils/lib.a(printf.o)
 .rodata.str1.1
                0x0006fee4       0x1b coreutils/lib.a(printf.o)
                                 0x30 (size before relaxing)
 .rodata.str1.1
                0x0006feff        0x6 coreutils/lib.a(readlink.o)
                                 0x10 (size before relaxing)
 .rodata.str1.1
                0x0006ff05       0x27 coreutils/lib.a(rm.o)
 .rodata.str1.1
                0x00000000       0x27 coreutils/lib.a(rmdir.o)
                                  0x8 (size before relaxing)
 .rodata.OPT_STR
                0x0006ff2c       0x18 coreutils/lib.a(sort.o)
 .rodata.str1.1
                0x0006ff44       0x6e coreutils/lib.a(sort.o)
                                 0x75 (size before relaxing)
 .rodata.str1.1
                0x0006ffb2       0x71 coreutils/lib.a(tail.o)
                                 0x89 (size before relaxing)
 .rodata.ops_texts
                0x00070023       0x7c coreutils/lib.a(test.o)
 .rodata.str1.1
                0x0007009f       0x5d coreutils/lib.a(test.o)
                                 0x74 (size before relaxing)
 .rodata.touch_longopts.7142
                0x000700fc       0x20 coreutils/lib.a(touch.o)
 .rodata.str1.1
                0x0007011c        0xb coreutils/lib.a(touch.o)
 .rodata.str1.1
                0x00070127       0x1e coreutils/lib.a(tr.o)
                                 0x2c (size before relaxing)
 .rodata.options
                0x00070145        0xa coreutils/lib.a(uname.o)
 .rodata.str1.1
                0x0007014f        0x8 coreutils/lib.a(uname.o)
                                 0x15 (size before relaxing)
 .rodata.uname_longopts.7150
                0x00070157       0x89 coreutils/lib.a(uname.o)
 .rodata.str1.1
                0x000701e0       0x19 coreutils/lib.a(uniq.o)
 .rodata.str1.1
                0x00000000       0x12 coreutils/lib.a(uudecode.o)
 .rodata.str1.1
                0x000701f9       0x12 coreutils/lib.a(wc.o)
                                 0x1f (size before relaxing)
 .rodata.str1.1
                0x00000000       0x10 coreutils/libcoreutils/lib.a(cp_mv_stat.o)
 .rodata.str1.1
                0x0007020b        0x3 coreutils/libcoreutils/lib.a(getopt_mk_fifo_nod.o)
 .rodata.str1.1
                0x0007020e      0x140 debianutils/lib.a(start_stop_daemon.o)
                                0x17a (size before relaxing)
 .rodata.start_stop_daemon_longopts
                0x0007034e       0x9c debianutils/lib.a(start_stop_daemon.o)
 .rodata.str1.1
                0x00000000      0x140 debianutils/lib.a(which.o)
                                  0xa (size before relaxing)
 .rodata.ignored_types
                0x000703ea       0x2e e2fsprogs/lib.a(fsck.o)
 .rodata.str1.1
                0x00070418      0x1d5 e2fsprogs/lib.a(fsck.o)
                                0x206 (size before relaxing)
 .rodata.EMSG_NOT_ARRAY
                0x000705ed        0xd editors/lib.a(awk.o)
 .rodata.EMSG_POSSIBLE_ERROR
                0x000705fa       0x16 editors/lib.a(awk.o)
 .rodata.str1.1
                0x00070610       0xea editors/lib.a(awk.o)
                                0x102 (size before relaxing)
 .rodata.EMSG_INTERNAL_ERROR
                0x000706fa        0xf editors/lib.a(awk.o)
 .rodata.EMSG_TOO_FEW_ARGS
                0x00070709       0x1e editors/lib.a(awk.o)
 .rodata.vValues
                0x00070727       0x19 editors/lib.a(awk.o)
 .rodata.EMSG_UNEXP_EOS
                0x00070740       0x19 editors/lib.a(awk.o)
 .rodata.EMSG_DIV_BY_ZERO
                0x00070759       0x11 editors/lib.a(awk.o)
 .rodata.tokenlist
                0x0007076a      0x1c0 editors/lib.a(awk.o)
 .rodata.EMSG_UNEXP_TOKEN
                0x0007092a       0x11 editors/lib.a(awk.o)
 .rodata.EMSG_UNDEF_FUNC
                0x0007093b       0x1b editors/lib.a(awk.o)
 .rodata.EMSG_INV_FMT
                0x00070956       0x19 editors/lib.a(awk.o)
 .rodata.vNames
                0x0007096f       0x6b editors/lib.a(awk.o)
 .rodata.fmt_l_opt
                0x000709da       0x16 editors/lib.a(cmp.o)
 .rodata.fmt_eof
                0x000709f0       0x10 editors/lib.a(cmp.o)
 .rodata.opt_chars
                0x00070a00        0x3 editors/lib.a(cmp.o)
 .rodata.str1.1
                0x00070a03       0x10 editors/lib.a(cmp.o)
                                 0x12 (size before relaxing)
 .rodata.fmt_differ
                0x00070a13       0x22 editors/lib.a(cmp.o)
 .rodata.cmd_letters.7389
                0x00070a35       0x1c editors/lib.a(sed.o)
 .rodata.str1.1
                0x00070a51      0x169 editors/lib.a(sed.o)
                                0x183 (size before relaxing)
 .rodata.sed_longopts.7626
                0x00070bba       0x43 editors/lib.a(sed.o)
 .rodata.semicolon_whitespace
                0x00070bfd        0x7 editors/lib.a(sed.o)
 .rodata.str1.1
                0x00070c04      0x595 editors/lib.a(vi.o)
                                0x603 (size before relaxing)
 .rodata.modifying_cmds
                0x00071199       0x11 editors/lib.a(vi.o)
 .rodata.str1.1
                0x000711aa       0x1c findutils/lib.a(find.o)
                                 0x2a (size before relaxing)
 .rodata.params.7267
                0x000711c6       0x3a findutils/lib.a(find.o)
 .rodata.str1.1
                0x00071200       0x50 findutils/lib.a(grep.o)
                                 0x61 (size before relaxing)
 .rodata.str1.1
                0x00071250       0xcf findutils/lib.a(xargs.o)
                                 0xdc (size before relaxing)
 .rodata.str1.1
                0x0007131f       0x2f libbb/lib.a(bb_pwd.o)
                                 0x3f (size before relaxing)
 .rodata.str1.1
                0x0007134e       0x11 libbb/lib.a(change_identity.o)
 .rodata.str1.1
                0x00000000        0xa libbb/lib.a(concat_path_file.o)
 .rodata.str1.1
                0x0007135f      0x137 libbb/lib.a(copy_file.o)
                                0x177 (size before relaxing)
 .rodata.str1.1
                0x00071496        0xe libbb/lib.a(correct_password.o)
 .rodata.str1.1
                0x00000000       0x20 libbb/lib.a(executable.o)
 .rodata.str1.1
                0x00000000        0xf libbb/lib.a(find_mount_point.o)
 .rodata.str1.1
                0x00000000        0x6 libbb/lib.a(get_shell_name.o)
 .rodata.str1.1
                0x000714a4       0x29 libbb/lib.a(get_volsize.o)
                                 0x2a (size before relaxing)
 .rodata.str1.1
                0x000714cd        0xb libbb/lib.a(getopt32.o)
                                  0xd (size before relaxing)
 .rodata.str1.1
                0x000714d8       0x43 libbb/lib.a(getpty.o)
 .rodata.P_array.7164
                0x0007151b       0x40 libbb/lib.a(hash_md5_sha.o)
 .rodata.S_array.7170
                0x0007155b       0x10 libbb/lib.a(hash_md5_sha.o)
 .rodata.unit_chars.7131
                0x0007156b        0x9 libbb/lib.a(human_readable.o)
 .rodata.str1.1
                0x00071574       0x1d libbb/lib.a(human_readable.o)
                                 0x2f (size before relaxing)
 .rodata.str1.1
                0x00071591       0x14 libbb/lib.a(inet_common.o)
                                 0x1e (size before relaxing)
 .rodata.str1.1
                0x00000000        0x1 libbb/lib.a(inode_hash.o)
 .rodata.str1.1
                0x000715a5       0x3f libbb/lib.a(lineedit.o)
                                 0x79 (size before relaxing)
 .rodata.null_str
                0x000715e4        0x1 libbb/lib.a(lineedit.o)
 .rodata.str1.1
                0x000715e5        0x8 libbb/lib.a(logenv.o)
                                 0x14 (size before relaxing)
 .rodata.fmtstr_d
                0x000715ed        0xd libbb/lib.a(login.o)
 .rodata.forbid
                0x000715fa       0x96 libbb/lib.a(login.o)
 .rodata.str1.1
                0x00071690        0x9 libbb/lib.a(login.o)
                                  0xb (size before relaxing)
 .rodata.str1.1
                0x00071699       0x14 libbb/lib.a(loop.o)
 .rodata.str1.1
                0x000716ad       0x32 libbb/lib.a(make_directory.o)
 .rodata.type_chars
                0x000716df       0x10 libbb/lib.a(mode_string.o)
 .rodata.mode_chars
                0x000716ef        0x7 libbb/lib.a(mode_string.o)
 .rodata.str1.1
                0x000716f6       0x28 libbb/lib.a(parse_config.o)
 .rodata.who_chars.7132
                0x0007171e        0x5 libbb/lib.a(parse_mode.o)
 .rodata.perm_chars.7133
                0x00071723        0x7 libbb/lib.a(parse_mode.o)
 .rodata.str1.1
                0x00000000        0x6 libbb/lib.a(print_flags.o)
 .rodata.str1.1
                0x0007172a        0x3 libbb/lib.a(printable.o)
 .rodata.charmap.7137
                0x0007172d       0x14 libbb/lib.a(process_escape_sequence.o)
 .rodata.str1.1
                0x00071741       0xa3 libbb/lib.a(procps.o)
                                 0xc1 (size before relaxing)
 .rodata.str1.1
                0x000717e4        0x7 libbb/lib.a(pw_encrypt.o)
                                  0x8 (size before relaxing)
 .rodata.esccmds.7134
                0x000717eb       0x5d libbb/lib.a(read_key.o)
 .rodata.str1.1
                0x00000000       0x1b libbb/lib.a(read_printf.o)
 .rodata.str1.1
                0x00071848       0x61 libbb/lib.a(remove_file.o)
                                 0x97 (size before relaxing)
 .rodata.str1.1
                0x000718a9        0x4 libbb/lib.a(run_shell.o)
                                 0x1a (size before relaxing)
 .rodata.str1.1
                0x00000000        0x2 libbb/lib.a(safe_gethostname.o)
 .rodata.str1.1
                0x000718ad        0x5 libbb/lib.a(safe_poll.o)
 .rodata.str1.1
                0x000718b2        0x5 libbb/lib.a(setup_environment.o)
                                 0x48 (size before relaxing)
 .rodata.str1.1
                0x00000000        0x3 libbb/lib.a(single_argv.o)
 .rodata.str1.1
                0x00000000        0x6 libbb/lib.a(skip_whitespace.o)
 .rodata.signals
                0x000718b7       0xe7 libbb/lib.a(u_signal_names.o)
 .rodata.str1.1
                0x0007199e       0x19 libbb/lib.a(u_signal_names.o)
 .rodata.str1.1
                0x000719b7       0x5a libbb/lib.a(update_passwd.o)
                                 0x7c (size before relaxing)
 .rodata.str1.1
                0x00071a11       0x1c libbb/lib.a(uuencode.o)
 .rodata.bb_uuenc_tbl_base64
                0x00071a2d       0x42 libbb/lib.a(uuencode.o)
                0x00071a2d                bb_uuenc_tbl_base64
 .rodata.str1.1
                0x00000000        0xc libbb/lib.a(vfork_daemon_rexec.o)
 .rodata.str1.1
                0x00000000        0x4 libbb/lib.a(wfopen.o)
 .rodata.str1.1
                0x00000000        0x2 libbb/lib.a(wfopen_input.o)
 .rodata.str1.1
                0x00071a6f       0x4a libbb/lib.a(xatonum.o)
                                 0x5e (size before relaxing)
 .rodata.str1.1
                0x00071ab9       0x64 libbb/lib.a(xconnect.o)
                                 0x72 (size before relaxing)
 .rodata.str1.1
                0x00071b1d        0x7 libbb/lib.a(xgetcwd.o)
 .rodata.str1.1
                0x00071b24       0x27 libbb/lib.a(xreadlink.o)
 .rodata.str1.1
                0x00071b4b       0x13 libbb/lib.a(xregcomp.o)
 .rodata        0x00071b5e       0x12 libpwdgrp/lib.a(pwd_grp.o)
 .rodata.str1.1
                0x00071b70       0x1a libpwdgrp/lib.a(pwd_grp.o)
                                 0x32 (size before relaxing)
 .rodata.str1.1
                0x00071b8a       0x16 libpwdgrp/lib.a(uidgid_get.o)

.rodata1
 *(SORT(.rodata1))

.ARM.extab
 *(SORT(.ARM.extab*) SORT(.gnu.linkonce.armextab.*))
                0x00071ba0                PROVIDE (__exidx_start, .)

.ARM.exidx
 *(SORT(.ARM.exidx*) SORT(.gnu.linkonce.armexidx.*))
                0x00071ba0                PROVIDE (__exidx_end, .)

.eh_frame_hdr   0x00071ba0        0x0
 *(SORT(.eh_frame_hdr))
 .eh_frame_hdr  0x00000000        0x0 /home/paldier/k3_384/release/src-rt-6.x.4708/toolchains/hndtools-arm-linux-2.6.36-uclibc-4.5.3/bin/../arm-brcm-linux-uclibcgnueabi/sysroot/usr/lib/crtn.o

.eh_frame       0x00071ba0        0x4
 *(SORT(.eh_frame))
 .eh_frame      0x00071ba0        0x0 /home/paldier/k3_384/release/src-rt-6.x.4708/toolchains/hndtools-arm-linux-2.6.36-uclibc-4.5.3/bin/../lib/gcc/arm-brcm-linux-uclibcgnueabi/4.5.3/crtbegin.o
 .eh_frame      0x00071ba0        0x4 /home/paldier/k3_384/release/src-rt-6.x.4708/toolchains/hndtools-arm-linux-2.6.36-uclibc-4.5.3/bin/../lib/gcc/arm-brcm-linux-uclibcgnueabi/4.5.3/crtend.o

.gcc_except_table
 *(SORT(.gcc_except_table) SORT(.gcc_except_table.*))
                0x00071ba4                . = (ALIGN (0x8000) - ((0x8000 - .) & 0x7fff))
                0x0007a000                . = DATA_SEGMENT_ALIGN (0x8000, 0x1000)

.eh_frame
 *(SORT(.eh_frame))

.gcc_except_table
 *(SORT(.gcc_except_table) SORT(.gcc_except_table.*))

.tdata
 *(SORT(.tdata) SORT(.tdata.*) SORT(.gnu.linkonce.td.*))

.tbss
 *(SORT(.tbss) SORT(.tbss.*) SORT(.gnu.linkonce.tb.*))
 *(SORT(.tcommon))

.preinit_array  0x0007a000        0x0
                0x0007a000                PROVIDE (__preinit_array_start, .)
 *(SORT(.preinit_array))
                0x0007a000                PROVIDE (__preinit_array_end, .)

.init_array     0x0007a000        0x4
                0x0007a000                PROVIDE (__init_array_start, .)
 *(SORT(.init_array.*))
 *(SORT(.init_array))
 .init_array    0x0007a000        0x4 /home/paldier/k3_384/release/src-rt-6.x.4708/toolchains/hndtools-arm-linux-2.6.36-uclibc-4.5.3/bin/../lib/gcc/arm-brcm-linux-uclibcgnueabi/4.5.3/crtbegin.o
                0x0007a004                PROVIDE (__init_array_end, .)

.fini_array     0x0007a004        0x4
                0x0007a004                PROVIDE (__fini_array_start, .)
 *(SORT(.fini_array.*))
 *(SORT(.fini_array))
 .fini_array    0x0007a004        0x4 /home/paldier/k3_384/release/src-rt-6.x.4708/toolchains/hndtools-arm-linux-2.6.36-uclibc-4.5.3/bin/../lib/gcc/arm-brcm-linux-uclibcgnueabi/4.5.3/crtbegin.o
                0x0007a008                PROVIDE (__fini_array_end, .)

.ctors
 *crtbegin.o(SORT(.ctors))
 *crtbegin?.o(SORT(.ctors))
 *(SORT(EXCLUDE_FILE(*crtend?.o *crtend.o) .ctors))
 *(SORT(.ctors.*))
 *(SORT(.ctors))

.dtors
 *crtbegin.o(SORT(.dtors))
 *crtbegin?.o(SORT(.dtors))
 *(SORT(EXCLUDE_FILE(*crtend?.o *crtend.o) .dtors))
 *(SORT(.dtors.*))
 *(SORT(.dtors))

.jcr            0x0007a008        0x4
 *(SORT(.jcr))
 .jcr           0x0007a008        0x0 /home/paldier/k3_384/release/src-rt-6.x.4708/toolchains/hndtools-arm-linux-2.6.36-uclibc-4.5.3/bin/../lib/gcc/arm-brcm-linux-uclibcgnueabi/4.5.3/crtbegin.o
 .jcr           0x0007a008        0x4 /home/paldier/k3_384/release/src-rt-6.x.4708/toolchains/hndtools-arm-linux-2.6.36-uclibc-4.5.3/bin/../lib/gcc/arm-brcm-linux-uclibcgnueabi/4.5.3/crtend.o

.data.rel.ro    0x0007a00c      0x998
 *(SORT(.data.rel.ro.local*) SORT(.gnu.linkonce.d.rel.ro.local.*))
 .data.rel.ro.local.OptArray
                0x0007a00c       0x98 networking/lib.a(ifconfig.o)
 .data.rel.ro.local.Arg1Opt
                0x0007a0a4       0x58 networking/lib.a(ifconfig.o)
 .data.rel.ro.local.unspec_aftype
                0x0007a0fc       0x2c networking/lib.a(interface.o)
 .data.rel.ro.local.unspec_hwtype
                0x0007a128       0x20 networking/lib.a(interface.o)
 .data.rel.ro.local.hwtypes
                0x0007a148       0x18 networking/lib.a(interface.o)
 .data.rel.ro.local.loop_hwtype
                0x0007a160       0x20 networking/lib.a(interface.o)
 .data.rel.ro.local.sit_hwtype
                0x0007a180       0x20 networking/lib.a(interface.o)
 .data.rel.ro.local.ss_fmt
                0x0007a1a0        0xc networking/lib.a(interface.o)
 .data.rel.ro.local.inet_aftype
                0x0007a1ac       0x2c networking/lib.a(interface.o)
 .data.rel.ro.local.inet6_aftype
                0x0007a1d8       0x2c networking/lib.a(interface.o)
 .data.rel.ro.local.if_port_text
                0x0007a204       0x20 networking/lib.a(interface.o)
 .data.rel.ro.local.ppp_hwtype
                0x0007a224       0x20 networking/lib.a(interface.o)
 .data.rel.ro.local.aftypes
                0x0007a244       0x10 networking/lib.a(interface.o)
 .data.rel.ro.local.tcp_state
                0x0007a254       0x30 networking/lib.a(netstat.o)
 .data.rel.ro.local.ttab6.7533
                0x0007a284       0x48 networking/lib.a(traceroute.o)
 .data.rel.ro.local.ttab.7532
                0x0007a2cc       0x4c networking/lib.a(traceroute.o)
 .data.rel.ro.local.filter_prog.7834
                0x0007a318        0x8 networking/udhcp/lib.a(dhcpc.o)
 .data.rel.ro.local.builtintab
                0x0007a320      0x100 shell/lib.a(ash.o)
 .data.rel.ro.local.optletters_optnames
                0x0007a420       0x3c shell/lib.a(ash.o)
 .data.rel.ro.local.tokname_array
                0x0007a45c       0x78 shell/lib.a(ash.o)
 .data.rel.ro.local.null_bltin.9473
                0x0007a4d4        0x8 shell/lib.a(ash.o)
 .data.rel.ro.local.limits_tbl
                0x0007a4dc       0x68 shell/lib.a(shell_common.o)
 .data.rel.ro.local.init_data
                0x0007a544       0x20 sysklogd/lib.a(syslogd_and_logger.o)
 .data.rel.ro.local.facilitynames
                0x0007a564       0xb8 sysklogd/lib.a(syslogd_and_logger.o)
                0x0007a564                facilitynames
 .data.rel.ro.local.prioritynames
                0x0007a61c       0x68 sysklogd/lib.a(syslogd_and_logger.o)
                0x0007a61c                prioritynames
 .data.rel.ro.local.i386_sys_types
                0x0007a684       0xc4 util-linux/lib.a(fdisk.o)
 .data.rel.ro.local.bb_argv_dash
                0x0007a748        0x8 libbb/lib.a(getopt32.o)
                0x0007a748                bb_argv_dash
 .data.rel.ro.local.const_sp_db
                0x0007a750       0x18 libpwdgrp/lib.a(pwd_grp.o)
 *(SORT(.data.rel.ro*) SORT(.gnu.linkonce.d.rel.ro.*))
 .data.rel.ro.applet_main
                0x0007a768      0x1d0 libbb/lib.a(appletlib.o)
                0x0007a768                applet_main
 .data.rel.ro.ether_hwtype
                0x0007a938       0x20 networking/lib.a(interface.o)
 .data.rel.ro.varinit_data
                0x0007a958       0x3c shell/lib.a(ash.o)
 .data.rel.ro.fs2
                0x0007a994       0x10 util-linux/volume_id/lib.a(volume_id.o)

.dynamic        0x0007a9a4      0x108
 *(SORT(.dynamic))
 .dynamic       0x0007a9a4      0x108 libbb/lib.a(appletlib.o)
                0x0007a9a4                _DYNAMIC
                0x0007aaac                . = DATA_SEGMENT_RELRO_END (., 0x0)

.got            0x0007aaac      0x4f8
 *(SORT(.got.plt))
 .got.plt       0x0007aaac      0x494 libbb/lib.a(appletlib.o)
                0x0007aaac                _GLOBAL_OFFSET_TABLE_
 *(SORT(.igot.plt))
 *(SORT(.got))
 .got           0x0007af40       0x64 libbb/lib.a(appletlib.o)
 *(SORT(.igot))

.data           0x0007afa4       0x1d
                0x0007afa4                PROVIDE (__data_start, .)
 *(SORT(.data) SORT(.data.*) SORT(.gnu.linkonce.d.*))
 .data          0x0007afa4        0x4 /home/paldier/k3_384/release/src-rt-6.x.4708/toolchains/hndtools-arm-linux-2.6.36-uclibc-4.5.3/bin/../lib/gcc/arm-brcm-linux-uclibcgnueabi/4.5.3/crtbegin.o
                0x0007afa4                __dso_handle
 .data.logmode  0x0007afa8        0x4 libbb/lib.a(verror_msg.o)
                0x0007afa8                logmode
 .data.rel.local.msg_eol
                0x0007afac        0x4 libbb/lib.a(verror_msg.o)
                0x0007afac                msg_eol
 .data.syslog_level
                0x0007afb0        0x4 libbb/lib.a(verror_msg.o)
                0x0007afb0                syslog_level
 .data.sockfd   0x0007afb4        0x4 networking/udhcp/lib.a(dhcpc.o)
 .data.builtinloc
                0x0007afb8        0x4 shell/lib.a(ash.o)
 .data.rel.local.g_parsefile
                0x0007afbc        0x4 shell/lib.a(ash.o)
 .data.xfunc_error_retval
                0x0007afc0        0x1 libbb/lib.a(default_error_retval.o)
                0x0007afc0                xfunc_error_retval

.data1
 *(SORT(.data1))
                0x0007afc1                _edata = .
                0x0007afc1                PROVIDE (edata, .)
                0x0007afc1                __bss_start = .
                0x0007afc1                __bss_start__ = .

.bss            0x0007afc8      0x5c0
 *(SORT(.dynbss))
 .dynbss        0x00000000        0x0 libbb/lib.a(appletlib.o)
 *(SORT(.bss) SORT(.bss.*) SORT(.gnu.linkonce.b.*))
 .bss           0x0007afc8       0x1c /home/paldier/k3_384/release/src-rt-6.x.4708/toolchains/hndtools-arm-linux-2.6.36-uclibc-4.5.3/bin/../lib/gcc/arm-brcm-linux-uclibcgnueabi/4.5.3/crtbegin.o
 .bss.ruid      0x0007afe4        0x4 libbb/lib.a(appletlib.o)
 .bss.local_buf
                0x0007afe8        0xc libbb/lib.a(xfuncs.o)
 .bss.int_list  0x0007aff4        0x4 networking/lib.a(interface.o)
 .bss.int_last  0x0007aff8        0x4 networking/lib.a(interface.o)
 .bss.proc_read.7443
                0x0007affc        0x4 networking/lib.a(interface.o)
 .bss.state     0x0007b000        0x4 networking/udhcp/lib.a(dhcpc.o)
 .bss.listen_mode
                0x0007b004        0x4 networking/udhcp/lib.a(dhcpc.o)
 .bss.signal_pipe
                0x0007b008        0x8 networking/udhcp/lib.a(signalpipe.o)
 .bss.startlinno
                0x0007b010        0x4 shell/lib.a(ash.o)
 .bss.commandname
                0x0007b014        0x4 shell/lib.a(ash.o)
 .bss.argbackq  0x0007b018        0x4 shell/lib.a(ash.o)
 .bss.doprompt  0x0007b01c        0x4 shell/lib.a(ash.o)
 .bss.argptr    0x0007b020        0x4 shell/lib.a(ash.o)
 .bss.jobless   0x0007b024        0x4 shell/lib.a(ash.o)
 .bss.funcblocksize
                0x0007b028        0x4 shell/lib.a(ash.o)
 .bss.funcstring
                0x0007b02c        0x4 shell/lib.a(ash.o)
 .bss.needprompt
                0x0007b030        0x4 shell/lib.a(ash.o)
 .bss.cmdenviron
                0x0007b034        0x4 shell/lib.a(ash.o)
 .bss.cmdedit_prompt
                0x0007b038        0x4 shell/lib.a(ash.o)
 .bss.wordtext  0x0007b03c        0x4 shell/lib.a(ash.o)
 .bss.njobs     0x0007b040        0x4 shell/lib.a(ash.o)
 .bss.redirnode
                0x0007b044        0x4 shell/lib.a(ash.o)
 .bss.loopnest  0x0007b048        0x4 shell/lib.a(ash.o)
 .bss.heredoclist
                0x0007b04c        0x4 shell/lib.a(ash.o)
 .bss.skipcount
                0x0007b050        0x4 shell/lib.a(ash.o)
 .bss.optptr    0x0007b054        0x4 shell/lib.a(ash.o)
 .bss.basepf    0x0007b058       0x34 shell/lib.a(ash.o)
 .bss.ifsfirst  0x0007b08c       0x10 shell/lib.a(ash.o)
 .bss.optionarg
                0x0007b09c        0x4 shell/lib.a(ash.o)
 .bss.expdest   0x0007b0a0        0x4 shell/lib.a(ash.o)
 .bss.localvars
                0x0007b0a4        0x4 shell/lib.a(ash.o)
 .bss.curjob    0x0007b0a8        0x4 shell/lib.a(ash.o)
 .bss.pathopt   0x0007b0ac        0x4 shell/lib.a(ash.o)
 .bss.lasttoken
                0x0007b0b0        0x4 shell/lib.a(ash.o)
 .bss.funcnest  0x0007b0b4        0x4 shell/lib.a(ash.o)
 .bss.lastcmdentry
                0x0007b0b8        0x4 shell/lib.a(ash.o)
 .bss.checkkwd  0x0007b0bc        0x4 shell/lib.a(ash.o)
 .bss.heredoc   0x0007b0c0        0x4 shell/lib.a(ash.o)
 .bss.ifslastp  0x0007b0c4        0x4 shell/lib.a(ash.o)
 .bss.tokpushback
                0x0007b0c8        0x4 shell/lib.a(ash.o)
 .bss.is_interactive.9351
                0x0007b0cc        0x4 shell/lib.a(ash.o)
 .bss.backquotelist
                0x0007b0d0        0x4 shell/lib.a(ash.o)
 .bss.evalskip  0x0007b0d4        0x4 shell/lib.a(ash.o)
 .bss.atab      0x0007b0d8        0x4 shell/lib.a(ash.o)
 .bss.cmdtable  0x0007b0dc        0x4 shell/lib.a(ash.o)
 .bss.jobtab    0x0007b0e0        0x4 shell/lib.a(ash.o)
 .bss.line_input_state
                0x0007b0e4        0x4 shell/lib.a(ash.o)
 .bss.funcblock
                0x0007b0e8        0x4 shell/lib.a(ash.o)
 .bss.quoteflag
                0x0007b0ec        0x4 shell/lib.a(ash.o)
 .bss.exparg    0x0007b0f0        0x8 shell/lib.a(ash.o)
 .bss.funcstringsize
                0x0007b0f8        0x4 shell/lib.a(ash.o)
 .bss.uuidCache
                0x0007b0fc        0x4 util-linux/volume_id/lib.a(get_devname.o)
 .bss.warned.7322
                0x0007b100        0x4 archival/libarchive/lib.a(unsafe_prefix.o)
 .bss.key_list  0x0007b104        0x4 coreutils/lib.a(sort.o)
 .bss.saved.7129
                0x0007b108       0x10 libbb/lib.a(auto_string.o)
 .bss.cache.7156
                0x0007b118        0x4 libbb/lib.a(inet_common.o)
 .bss.ino_dev_hashtable
                0x0007b11c        0x4 libbb/lib.a(inode_hash.o)
 .bss.buf.7131  0x0007b120        0xc libbb/lib.a(mode_string.o)
 .bss.username  0x0007b12c        0x8 libbb/lib.a(procps.o)
 .bss.groupname
                0x0007b134        0x8 libbb/lib.a(procps.o)
 .bss.ptr_to_statics
                0x0007b13c        0x4 libpwdgrp/lib.a(pwd_grp.o)
 .bss.back_exitstatus
                0x0007b140        0x1 shell/lib.a(ash.o)
 .bss.exitstatus
                0x0007b141        0x1 shell/lib.a(ash.o)
 .bss.key_separator
                0x0007b142        0x1 coreutils/lib.a(sort.o)
 .bss.cur_saved.7130
                0x0007b143        0x1 libbb/lib.a(auto_string.o)
 *(SORT(COMMON))
 *fill*         0x0007b144        0x4 00
 COMMON         0x0007b148      0x400 libbb/lib.a(common_bufsiz.o)
                0x0007b148                bb_common_bufsiz1
 COMMON         0x0007b548        0x4 libbb/lib.a(appletlib.o)
                0x0007b548                applet_name
 COMMON         0x0007b54c        0x8 libbb/lib.a(ptr_to_globals.o)
                0x0007b54c                ptr_to_globals
                0x0007b550                bb_errno
 COMMON         0x0007b554        0x4 libbb/lib.a(xfunc_die.o)
                0x0007b554                die_func
 COMMON         0x0007b558        0x4 libbb/lib.a(signals.o)
                0x0007b558                bb_got_signal
 COMMON         0x0007b55c        0x4 networking/lib.a(interface.o)
                0x0007b55c                interface_opt_a
 COMMON         0x0007b560        0xc shell/lib.a(ash_ptr_hack.o)
                0x0007b560                ash_ptr_to_globals_var
                0x0007b564                ash_ptr_to_globals_memstack
                0x0007b568                ash_ptr_to_globals_misc
 COMMON         0x0007b56c        0x4 coreutils/lib.a(test_ptr_hack.o)
                0x0007b56c                test_ptr_to_statics
 COMMON         0x0007b570        0x4 libbb/lib.a(crc32.o)
                0x0007b570                global_crc32_table
 COMMON         0x0007b574        0xc libbb/lib.a(getopt32.o)
                0x0007b574                option_mask32
                0x0007b578                opt_complementary
                0x0007b57c                applet_long_options
 COMMON         0x0007b580        0x4 libbb/lib.a(lineedit_ptr_hack.o)
                0x0007b580                lineedit_ptr_to_statics
 COMMON         0x0007b584        0x4 libbb/lib.a(pidfile.o)
                0x0007b584                wrote_pidfile
                0x0007b588                . = ALIGN ((. != 0x0)?0x4:0x1)
                0x0007b588                _bss_end__ = .
                0x0007b588                __bss_end__ = .
                0x0007b588                . = ALIGN (0x4)
                0x0007b588                . = ALIGN (0x4)
                0x0007b588                __end__ = .
                0x0007b588                _end = .
                0x0007b588                PROVIDE (end, .)
                0x0007b588                . = DATA_SEGMENT_END (.)

.stab
 *(SORT(.stab))

.stabstr
 *(SORT(.stabstr))

.stab.excl
 *(SORT(.stab.excl))

.stab.exclstr
 *(SORT(.stab.exclstr))

.stab.index
 *(SORT(.stab.index))

.stab.indexstr
 *(SORT(.stab.indexstr))

.comment        0x00000000       0x4d
 *(SORT(.comment))
 .comment       0x00000000       0x2e /home/paldier/k3_384/release/src-rt-6.x.4708/toolchains/hndtools-arm-linux-2.6.36-uclibc-4.5.3/bin/../arm-brcm-linux-uclibcgnueabi/sysroot/usr/lib/crti.o
                                 0x2f (size before relaxing)
 .comment       0x0000002e       0x1f /home/paldier/k3_384/release/src-rt-6.x.4708/toolchains/hndtools-arm-linux-2.6.36-uclibc-4.5.3/bin/../lib/gcc/arm-brcm-linux-uclibcgnueabi/4.5.3/crtbegin.o
                                 0x20 (size before relaxing)
 .comment       0x00000000       0x20 applets/built-in.o
 .comment       0x00000000       0x20 libbb/lib.a(appletlib.o)
 .comment       0x00000000       0x20 libbb/lib.a(compare_string_array.o)
 .comment       0x00000000       0x20 libbb/lib.a(default_error_retval.o)
 .comment       0x00000000       0x20 libbb/lib.a(get_last_path_component.o)
 .comment       0x00000000       0x20 libbb/lib.a(last_char_is.o)
 .comment       0x00000000       0x20 libbb/lib.a(messages.o)
 .comment       0x00000000       0x20 libbb/lib.a(ptr_to_globals.o)
 .comment       0x00000000       0x20 libbb/lib.a(verror_msg.o)
 .comment       0x00000000       0x20 libbb/lib.a(xfunc_die.o)
 .comment       0x00000000       0x20 libbb/lib.a(xfuncs.o)
 .comment       0x00000000       0x20 libbb/lib.a(xfuncs_printf.o)
 .comment       0x00000000       0x20 libbb/lib.a(copyfd.o)
 .comment       0x00000000       0x20 libbb/lib.a(full_write.o)
 .comment       0x00000000       0x20 libbb/lib.a(perror_msg.o)
 .comment       0x00000000       0x20 libbb/lib.a(read.o)
 .comment       0x00000000       0x20 libbb/lib.a(safe_write.o)
 .comment       0x00000000       0x20 libbb/lib.a(signals.o)
 .comment       0x00000000       0x20 libbb/lib.a(time.o)
 .comment       0x00000000       0x20 libbb/lib.a(bb_strtonum.o)
 .comment       0x00000000       0x20 loginutils/lib.a(chpasswd.o)
 .comment       0x00000000       0x20 loginutils/lib.a(login.o)
 .comment       0x00000000       0x20 miscutils/lib.a(crond.o)
 .comment       0x00000000       0x20 miscutils/lib.a(devmem.o)
 .comment       0x00000000       0x20 miscutils/lib.a(flash_eraseall.o)
 .comment       0x00000000       0x20 miscutils/lib.a(ionice.o)
 .comment       0x00000000       0x20 miscutils/lib.a(less.o)
 .comment       0x00000000       0x20 miscutils/lib.a(strings.o)
 .comment       0x00000000       0x20 modutils/lib.a(insmod.o)
 .comment       0x00000000       0x20 modutils/lib.a(lsmod.o)
 .comment       0x00000000       0x20 modutils/lib.a(modprobe.o)
 .comment       0x00000000       0x20 modutils/lib.a(modutils.o)
 .comment       0x00000000       0x20 modutils/lib.a(rmmod.o)
 .comment       0x00000000       0x20 networking/lib.a(arp.o)
 .comment       0x00000000       0x20 networking/lib.a(ether-wake.o)
 .comment       0x00000000       0x20 networking/lib.a(ifconfig.o)
 .comment       0x00000000       0x20 networking/lib.a(interface.o)
 .comment       0x00000000       0x20 networking/lib.a(netstat.o)
 .comment       0x00000000       0x20 networking/lib.a(nslookup.o)
 .comment       0x00000000       0x20 networking/lib.a(ping.o)
 .comment       0x00000000       0x20 networking/lib.a(route.o)
 .comment       0x00000000       0x20 networking/lib.a(telnetd.o)
 .comment       0x00000000       0x20 networking/lib.a(traceroute.o)
 .comment       0x00000000       0x20 networking/lib.a(vconfig.o)
 .comment       0x00000000       0x20 networking/lib.a(zcip.o)
 .comment       0x00000000       0x20 networking/udhcp/lib.a(dhcpc.o)
 .comment       0x00000000       0x20 networking/udhcp/lib.a(packet.o)
 .comment       0x00000000       0x20 networking/udhcp/lib.a(signalpipe.o)
 .comment       0x00000000       0x20 networking/udhcp/lib.a(socket.o)
 .comment       0x00000000       0x20 networking/udhcp/lib.a(arpping.o)
 .comment       0x00000000       0x20 networking/udhcp/lib.a(common.o)
 .comment       0x00000000       0x20 procps/lib.a(free.o)
 .comment       0x00000000       0x20 procps/lib.a(kill.o)
 .comment       0x00000000       0x20 procps/lib.a(pidof.o)
 .comment       0x00000000       0x20 procps/lib.a(ps.o)
 .comment       0x00000000       0x20 procps/lib.a(renice.o)
 .comment       0x00000000       0x20 procps/lib.a(top.o)
 .comment       0x00000000       0x20 procps/lib.a(uptime.o)
 .comment       0x00000000       0x20 procps/lib.a(watch.o)
 .comment       0x00000000       0x20 shell/lib.a(ash.o)
 .comment       0x00000000       0x20 shell/lib.a(ash_ptr_hack.o)
 .comment       0x00000000       0x20 shell/lib.a(math.o)
 .comment       0x00000000       0x20 shell/lib.a(shell_common.o)
 .comment       0x00000000       0x20 sysklogd/lib.a(klogd.o)
 .comment       0x00000000       0x20 sysklogd/lib.a(syslogd_and_logger.o)
 .comment       0x00000000       0x20 util-linux/lib.a(blkid.o)
 .comment       0x00000000       0x20 util-linux/lib.a(dmesg.o)
 .comment       0x00000000       0x20 util-linux/lib.a(fdisk.o)
 .comment       0x00000000       0x20 util-linux/lib.a(flock.o)
 .comment       0x00000000       0x20 util-linux/lib.a(fsck_minix.o)
 .comment       0x00000000       0x20 util-linux/lib.a(lsusb.o)
 .comment       0x00000000       0x20 util-linux/lib.a(mdev.o)
 .comment       0x00000000       0x20 util-linux/lib.a(mkswap.o)
 .comment       0x00000000       0x20 util-linux/lib.a(more.o)
 .comment       0x00000000       0x20 util-linux/lib.a(mount.o)
 .comment       0x00000000       0x20 util-linux/lib.a(swaponoff.o)
 .comment       0x00000000       0x20 util-linux/lib.a(umount.o)
 .comment       0x00000000       0x20 util-linux/volume_id/lib.a(get_devname.o)
 .comment       0x00000000       0x20 util-linux/volume_id/lib.a(volume_id.o)
 .comment       0x00000000       0x20 util-linux/volume_id/lib.a(ext.o)
 .comment       0x00000000       0x20 util-linux/volume_id/lib.a(fat.o)
 .comment       0x00000000       0x20 util-linux/volume_id/lib.a(hfs.o)
 .comment       0x00000000       0x20 util-linux/volume_id/lib.a(linux_swap.o)
 .comment       0x00000000       0x20 util-linux/volume_id/lib.a(ntfs.o)
 .comment       0x00000000       0x20 util-linux/volume_id/lib.a(util.o)
 .comment       0x00000000       0x20 archival/lib.a(bbunzip.o)
 .comment       0x00000000       0x20 archival/lib.a(gzip.o)
 .comment       0x00000000       0x20 archival/lib.a(tar.o)
 .comment       0x00000000       0x20 archival/lib.a(unzip.o)
 .comment       0x00000000       0x20 archival/libarchive/lib.a(data_extract_all.o)
 .comment       0x00000000       0x20 archival/libarchive/lib.a(data_extract_to_stdout.o)
 .comment       0x00000000       0x20 archival/libarchive/lib.a(data_skip.o)
 .comment       0x00000000       0x20 archival/libarchive/lib.a(decompress_bunzip2.o)
 .comment       0x00000000       0x20 archival/libarchive/lib.a(decompress_gunzip.o)
 .comment       0x00000000       0x20 archival/libarchive/lib.a(filter_accept_reject_list.o)
 .comment       0x00000000       0x20 archival/libarchive/lib.a(find_list_entry.o)
 .comment       0x00000000       0x20 archival/libarchive/lib.a(get_header_tar.o)
 .comment       0x00000000       0x20 archival/libarchive/lib.a(header_list.o)
 .comment       0x00000000       0x20 archival/libarchive/lib.a(header_verbose_list.o)
 .comment       0x00000000       0x20 archival/libarchive/lib.a(init_handle.o)
 .comment       0x00000000       0x20 archival/libarchive/lib.a(open_transformer.o)
 .comment       0x00000000       0x20 archival/libarchive/lib.a(seek_by_jump.o)
 .comment       0x00000000       0x20 archival/libarchive/lib.a(seek_by_read.o)
 .comment       0x00000000       0x20 archival/libarchive/lib.a(unsafe_prefix.o)
 .comment       0x00000000       0x20 archival/libarchive/lib.a(data_align.o)
 .comment       0x00000000       0x20 archival/libarchive/lib.a(filter_accept_all.o)
 .comment       0x00000000       0x20 archival/libarchive/lib.a(header_skip.o)
 .comment       0x00000000       0x20 console-tools/lib.a(clear.o)
 .comment       0x00000000       0x20 console-tools/lib.a(setconsole.o)
 .comment       0x00000000       0x20 coreutils/lib.a(basename.o)
 .comment       0x00000000       0x20 coreutils/lib.a(cat.o)
 .comment       0x00000000       0x20 coreutils/lib.a(chmod.o)
 .comment       0x00000000       0x20 coreutils/lib.a(chown.o)
 .comment       0x00000000       0x20 coreutils/lib.a(cp.o)
 .comment       0x00000000       0x20 coreutils/lib.a(cut.o)
 .comment       0x00000000       0x20 coreutils/lib.a(date.o)
 .comment       0x00000000       0x20 coreutils/lib.a(dd.o)
 .comment       0x00000000       0x20 coreutils/lib.a(df.o)
 .comment       0x00000000       0x20 coreutils/lib.a(dirname.o)
 .comment       0x00000000       0x20 coreutils/lib.a(du.o)
 .comment       0x00000000       0x20 coreutils/lib.a(echo.o)
 .comment       0x00000000       0x20 coreutils/lib.a(env.o)
 .comment       0x00000000       0x20 coreutils/lib.a(expr.o)
 .comment       0x00000000       0x20 coreutils/lib.a(fsync.o)
 .comment       0x00000000       0x20 coreutils/lib.a(head.o)
 .comment       0x00000000       0x20 coreutils/lib.a(ln.o)
 .comment       0x00000000       0x20 coreutils/lib.a(ls.o)
 .comment       0x00000000       0x20 coreutils/lib.a(md5_sha1_sum.o)
 .comment       0x00000000       0x20 coreutils/lib.a(mkdir.o)
 .comment       0x00000000       0x20 coreutils/lib.a(mknod.o)
 .comment       0x00000000       0x20 coreutils/lib.a(mv.o)
 .comment       0x00000000       0x20 coreutils/lib.a(nice.o)
 .comment       0x00000000       0x20 coreutils/lib.a(nohup.o)
 .comment       0x00000000       0x20 coreutils/lib.a(printf.o)
 .comment       0x00000000       0x20 coreutils/lib.a(pwd.o)
 .comment       0x00000000       0x20 coreutils/lib.a(readlink.o)
 .comment       0x00000000       0x20 coreutils/lib.a(rm.o)
 .comment       0x00000000       0x20 coreutils/lib.a(rmdir.o)
 .comment       0x00000000       0x20 coreutils/lib.a(sleep.o)
 .comment       0x00000000       0x20 coreutils/lib.a(sort.o)
 .comment       0x00000000       0x20 coreutils/lib.a(sync.o)
 .comment       0x00000000       0x20 coreutils/lib.a(tail.o)
 .comment       0x00000000       0x20 coreutils/lib.a(test.o)
 .comment       0x00000000       0x20 coreutils/lib.a(test_ptr_hack.o)
 .comment       0x00000000       0x20 coreutils/lib.a(touch.o)
 .comment       0x00000000       0x20 coreutils/lib.a(tr.o)
 .comment       0x00000000       0x20 coreutils/lib.a(true.o)
 .comment       0x00000000       0x20 coreutils/lib.a(uname.o)
 .comment       0x00000000       0x20 coreutils/lib.a(uniq.o)
 .comment       0x00000000       0x20 coreutils/lib.a(usleep.o)
 .comment       0x00000000       0x20 coreutils/lib.a(uudecode.o)
 .comment       0x00000000       0x20 coreutils/lib.a(wc.o)
 .comment       0x00000000       0x20 coreutils/libcoreutils/lib.a(cp_mv_stat.o)
 .comment       0x00000000       0x20 coreutils/libcoreutils/lib.a(getopt_mk_fifo_nod.o)
 .comment       0x00000000       0x20 debianutils/lib.a(start_stop_daemon.o)
 .comment       0x00000000       0x20 debianutils/lib.a(which.o)
 .comment       0x00000000       0x20 e2fsprogs/lib.a(fsck.o)
 .comment       0x00000000       0x20 editors/lib.a(awk.o)
 .comment       0x00000000       0x20 editors/lib.a(cmp.o)
 .comment       0x00000000       0x20 editors/lib.a(sed.o)
 .comment       0x00000000       0x20 editors/lib.a(vi.o)
 .comment       0x00000000       0x20 findutils/lib.a(find.o)
 .comment       0x00000000       0x20 findutils/lib.a(grep.o)
 .comment       0x00000000       0x20 findutils/lib.a(xargs.o)
 .comment       0x00000000       0x20 libbb/lib.a(ask_confirmation.o)
 .comment       0x00000000       0x20 libbb/lib.a(auto_string.o)
 .comment       0x00000000       0x20 libbb/lib.a(bb_do_delay.o)
 .comment       0x00000000       0x20 libbb/lib.a(bb_pwd.o)
 .comment       0x00000000       0x20 libbb/lib.a(change_identity.o)
 .comment       0x00000000       0x20 libbb/lib.a(chomp.o)
 .comment       0x00000000       0x20 libbb/lib.a(common_bufsiz.o)
 .comment       0x00000000       0x20 libbb/lib.a(concat_path_file.o)
 .comment       0x00000000       0x20 libbb/lib.a(concat_subpath_file.o)
 .comment       0x00000000       0x20 libbb/lib.a(copy_file.o)
 .comment       0x00000000       0x20 libbb/lib.a(correct_password.o)
 .comment       0x00000000       0x20 libbb/lib.a(crc32.o)
 .comment       0x00000000       0x20 libbb/lib.a(device_open.o)
 .comment       0x00000000       0x20 libbb/lib.a(endofname.o)
 .comment       0x00000000       0x20 libbb/lib.a(executable.o)
 .comment       0x00000000       0x20 libbb/lib.a(fclose_nonstdin.o)
 .comment       0x00000000       0x20 libbb/lib.a(fflush_stdout_and_exit.o)
 .comment       0x00000000       0x20 libbb/lib.a(fgets_str.o)
 .comment       0x00000000       0x20 libbb/lib.a(find_mount_point.o)
 .comment       0x00000000       0x20 libbb/lib.a(find_pid_by_name.o)
 .comment       0x00000000       0x20 libbb/lib.a(get_line_from_file.o)
 .comment       0x00000000       0x20 libbb/lib.a(get_shell_name.o)
 .comment       0x00000000       0x20 libbb/lib.a(get_volsize.o)
 .comment       0x00000000       0x20 libbb/lib.a(getopt32.o)
 .comment       0x00000000       0x20 libbb/lib.a(getpty.o)
 .comment       0x00000000       0x20 libbb/lib.a(hash_md5_sha.o)
 .comment       0x00000000       0x20 libbb/lib.a(herror_msg.o)
 .comment       0x00000000       0x20 libbb/lib.a(human_readable.o)
 .comment       0x00000000       0x20 libbb/lib.a(in_ether.o)
 .comment       0x00000000       0x20 libbb/lib.a(inet_cksum.o)
 .comment       0x00000000       0x20 libbb/lib.a(inet_common.o)
 .comment       0x00000000       0x20 libbb/lib.a(inode_hash.o)
 .comment       0x00000000       0x20 libbb/lib.a(isdirectory.o)
 .comment       0x00000000       0x20 libbb/lib.a(lineedit.o)
 .comment       0x00000000       0x20 libbb/lib.a(lineedit_ptr_hack.o)
 .comment       0x00000000       0x20 libbb/lib.a(llist.o)
 .comment       0x00000000       0x20 libbb/lib.a(logenv.o)
 .comment       0x00000000       0x20 libbb/lib.a(login.o)
 .comment       0x00000000       0x20 libbb/lib.a(loop.o)
 .comment       0x00000000       0x20 libbb/lib.a(make_directory.o)
 .comment       0x00000000       0x20 libbb/lib.a(makedev.o)
 .comment       0x00000000       0x20 libbb/lib.a(match_fstype.o)
 .comment       0x00000000       0x20 libbb/lib.a(mode_string.o)
 .comment       0x00000000       0x20 libbb/lib.a(nuke_str.o)
 .comment       0x00000000       0x20 libbb/lib.a(parse_config.o)
 .comment       0x00000000       0x20 libbb/lib.a(parse_mode.o)
 .comment       0x00000000       0x20 libbb/lib.a(perror_nomsg_and_die.o)
 .comment       0x00000000       0x20 libbb/lib.a(pidfile.o)
 .comment       0x00000000       0x20 libbb/lib.a(print_flags.o)
 .comment       0x00000000       0x20 libbb/lib.a(printable.o)
 .comment       0x00000000       0x20 libbb/lib.a(printable_string.o)
 .comment       0x00000000       0x20 libbb/lib.a(process_escape_sequence.o)
 .comment       0x00000000       0x20 libbb/lib.a(procps.o)
 .comment       0x00000000       0x20 libbb/lib.a(pw_encrypt.o)
 .comment       0x00000000       0x20 libbb/lib.a(read_key.o)
 .comment       0x00000000       0x20 libbb/lib.a(read_printf.o)
 .comment       0x00000000       0x20 libbb/lib.a(recursive_action.o)
 .comment       0x00000000       0x20 libbb/lib.a(remove_file.o)
 .comment       0x00000000       0x20 libbb/lib.a(replace.o)
 .comment       0x00000000       0x20 libbb/lib.a(run_shell.o)
 .comment       0x00000000       0x20 libbb/lib.a(safe_gethostname.o)
 .comment       0x00000000       0x20 libbb/lib.a(safe_poll.o)
 .comment       0x00000000       0x20 libbb/lib.a(safe_strncpy.o)
 .comment       0x00000000       0x20 libbb/lib.a(setup_environment.o)
 .comment       0x00000000       0x20 libbb/lib.a(simplify_path.o)
 .comment       0x00000000       0x20 libbb/lib.a(single_argv.o)
 .comment       0x00000000       0x20 libbb/lib.a(skip_whitespace.o)
 .comment       0x00000000       0x20 libbb/lib.a(sysconf.o)
 .comment       0x00000000       0x20 libbb/lib.a(u_signal_names.o)
 .comment       0x00000000       0x20 libbb/lib.a(udp_io.o)
 .comment       0x00000000       0x20 libbb/lib.a(unicode.o)
 .comment       0x00000000       0x20 libbb/lib.a(update_passwd.o)
 .comment       0x00000000       0x20 libbb/lib.a(uuencode.o)
 .comment       0x00000000       0x20 libbb/lib.a(vfork_daemon_rexec.o)
 .comment       0x00000000       0x20 libbb/lib.a(wfopen.o)
 .comment       0x00000000       0x20 libbb/lib.a(wfopen_input.o)
 .comment       0x00000000       0x20 libbb/lib.a(xatonum.o)
 .comment       0x00000000       0x20 libbb/lib.a(xconnect.o)
 .comment       0x00000000       0x20 libbb/lib.a(xgetcwd.o)
 .comment       0x00000000       0x20 libbb/lib.a(xreadlink.o)
 .comment       0x00000000       0x20 libbb/lib.a(xrealloc_vector.o)
 .comment       0x00000000       0x20 libbb/lib.a(xregcomp.o)
 .comment       0x00000000       0x20 libbb/lib.a(bb_askpass.o)
 .comment       0x00000000       0x20 libbb/lib.a(bb_bswap_64.o)
 .comment       0x00000000       0x20 libbb/lib.a(bb_qsort.o)
 .comment       0x00000000       0x20 libbb/lib.a(perror_nomsg.o)
 .comment       0x00000000       0x20 libpwdgrp/lib.a(pwd_grp.o)
 .comment       0x00000000       0x20 libpwdgrp/lib.a(uidgid_get.o)
 .comment       0x00000000       0x20 /home/paldier/k3_384/release/src-rt-6.x.4708/toolchains/hndtools-arm-linux-2.6.36-uclibc-4.5.3/bin/../lib/gcc/arm-brcm-linux-uclibcgnueabi/4.5.3/crtend.o
 .comment       0x00000000       0x2f /home/paldier/k3_384/release/src-rt-6.x.4708/toolchains/hndtools-arm-linux-2.6.36-uclibc-4.5.3/bin/../arm-brcm-linux-uclibcgnueabi/sysroot/usr/lib/crtn.o

.ARM.attributes
                0x00000000       0x2b
 .ARM.attributes
                0x00000000       0x1f /home/paldier/k3_384/release/src-rt-6.x.4708/toolchains/hndtools-arm-linux-2.6.36-uclibc-4.5.3/bin/../arm-brcm-linux-uclibcgnueabi/sysroot/usr/lib/crt1.o
 .ARM.attributes
                0x0000001f       0x1f /home/paldier/k3_384/release/src-rt-6.x.4708/toolchains/hndtools-arm-linux-2.6.36-uclibc-4.5.3/bin/../arm-brcm-linux-uclibcgnueabi/sysroot/usr/lib/crti.o
 .ARM.attributes
                0x0000003e       0x2f /home/paldier/k3_384/release/src-rt-6.x.4708/toolchains/hndtools-arm-linux-2.6.36-uclibc-4.5.3/bin/../lib/gcc/arm-brcm-linux-uclibcgnueabi/4.5.3/crtbegin.o
 .ARM.attributes
                0x0000006d       0x2f applets/built-in.o
 .ARM.attributes
                0x0000009c       0x2f libbb/lib.a(appletlib.o)
 .ARM.attributes
                0x000000cb       0x2f libbb/lib.a(compare_string_array.o)
 .ARM.attributes
                0x000000fa       0x2f libbb/lib.a(default_error_retval.o)
 .ARM.attributes
                0x00000129       0x2f libbb/lib.a(get_last_path_component.o)
 .ARM.attributes
                0x00000158       0x2f libbb/lib.a(last_char_is.o)
 .ARM.attributes
                0x00000187       0x2f libbb/lib.a(messages.o)
 .ARM.attributes
                0x000001b6       0x2f libbb/lib.a(ptr_to_globals.o)
 .ARM.attributes
                0x000001e5       0x2f libbb/lib.a(verror_msg.o)
 .ARM.attributes
                0x00000214       0x2f libbb/lib.a(xfunc_die.o)
 .ARM.attributes
                0x00000243       0x2f libbb/lib.a(xfuncs.o)
 .ARM.attributes
                0x00000272       0x2f libbb/lib.a(xfuncs_printf.o)
 .ARM.attributes
                0x000002a1       0x2f libbb/lib.a(copyfd.o)
 .ARM.attributes
                0x000002d0       0x2f libbb/lib.a(full_write.o)
 .ARM.attributes
                0x000002ff       0x2f libbb/lib.a(perror_msg.o)
 .ARM.attributes
                0x0000032e       0x2f libbb/lib.a(read.o)
 .ARM.attributes
                0x0000035d       0x2f libbb/lib.a(safe_write.o)
 .ARM.attributes
                0x0000038c       0x2f libbb/lib.a(signals.o)
 .ARM.attributes
                0x000003bb       0x2f libbb/lib.a(time.o)
 .ARM.attributes
                0x000003ea       0x2f libbb/lib.a(bb_strtonum.o)
 .ARM.attributes
                0x00000419       0x2f loginutils/lib.a(chpasswd.o)
 .ARM.attributes
                0x00000448       0x2f loginutils/lib.a(login.o)
 .ARM.attributes
                0x00000477       0x2f miscutils/lib.a(crond.o)
 .ARM.attributes
                0x000004a6       0x2f miscutils/lib.a(devmem.o)
 .ARM.attributes
                0x000004d5       0x2f miscutils/lib.a(flash_eraseall.o)
 .ARM.attributes
                0x00000504       0x2f miscutils/lib.a(ionice.o)
 .ARM.attributes
                0x00000533       0x2f miscutils/lib.a(less.o)
 .ARM.attributes
                0x00000562       0x2f miscutils/lib.a(strings.o)
 .ARM.attributes
                0x00000591       0x2f modutils/lib.a(insmod.o)
 .ARM.attributes
                0x000005c0       0x2f modutils/lib.a(lsmod.o)
 .ARM.attributes
                0x000005ef       0x2f modutils/lib.a(modprobe.o)
 .ARM.attributes
                0x0000061e       0x2f modutils/lib.a(modutils.o)
 .ARM.attributes
                0x0000064d       0x2f modutils/lib.a(rmmod.o)
 .ARM.attributes
                0x0000067c       0x2f networking/lib.a(arp.o)
 .ARM.attributes
                0x000006ab       0x2f networking/lib.a(ether-wake.o)
 .ARM.attributes
                0x000006da       0x2f networking/lib.a(ifconfig.o)
 .ARM.attributes
                0x00000709       0x2f networking/lib.a(interface.o)
 .ARM.attributes
                0x00000738       0x2f networking/lib.a(netstat.o)
 .ARM.attributes
                0x00000767       0x2f networking/lib.a(nslookup.o)
 .ARM.attributes
                0x00000796       0x2f networking/lib.a(ping.o)
 .ARM.attributes
                0x000007c5       0x2f networking/lib.a(route.o)
 .ARM.attributes
                0x000007f4       0x2f networking/lib.a(telnetd.o)
 .ARM.attributes
                0x00000823       0x2f networking/lib.a(traceroute.o)
 .ARM.attributes
                0x00000852       0x2f networking/lib.a(vconfig.o)
 .ARM.attributes
                0x00000881       0x2f networking/lib.a(zcip.o)
 .ARM.attributes
                0x000008b0       0x2f networking/udhcp/lib.a(dhcpc.o)
 .ARM.attributes
                0x000008df       0x2f networking/udhcp/lib.a(packet.o)
 .ARM.attributes
                0x0000090e       0x2f networking/udhcp/lib.a(signalpipe.o)
 .ARM.attributes
                0x0000093d       0x2f networking/udhcp/lib.a(socket.o)
 .ARM.attributes
                0x0000096c       0x2f networking/udhcp/lib.a(arpping.o)
 .ARM.attributes
                0x0000099b       0x2f networking/udhcp/lib.a(common.o)
 .ARM.attributes
                0x000009ca       0x2f procps/lib.a(free.o)
 .ARM.attributes
                0x000009f9       0x2f procps/lib.a(kill.o)
 .ARM.attributes
                0x00000a28       0x2f procps/lib.a(pidof.o)
 .ARM.attributes
                0x00000a57       0x2f procps/lib.a(ps.o)
 .ARM.attributes
                0x00000a86       0x2f procps/lib.a(renice.o)
 .ARM.attributes
                0x00000ab5       0x2f procps/lib.a(top.o)
 .ARM.attributes
                0x00000ae4       0x2f procps/lib.a(uptime.o)
 .ARM.attributes
                0x00000b13       0x2f procps/lib.a(watch.o)
 .ARM.attributes
                0x00000b42       0x2f shell/lib.a(ash.o)
 .ARM.attributes
                0x00000b71       0x2f shell/lib.a(ash_ptr_hack.o)
 .ARM.attributes
                0x00000ba0       0x2f shell/lib.a(math.o)
 .ARM.attributes
                0x00000bcf       0x2f shell/lib.a(shell_common.o)
 .ARM.attributes
                0x00000bfe       0x2f sysklogd/lib.a(klogd.o)
 .ARM.attributes
                0x00000c2d       0x2f sysklogd/lib.a(syslogd_and_logger.o)
 .ARM.attributes
                0x00000c5c       0x2f util-linux/lib.a(blkid.o)
 .ARM.attributes
                0x00000c8b       0x2f util-linux/lib.a(dmesg.o)
 .ARM.attributes
                0x00000cba       0x2f util-linux/lib.a(fdisk.o)
 .ARM.attributes
                0x00000ce9       0x2f util-linux/lib.a(flock.o)
 .ARM.attributes
                0x00000d18       0x2f util-linux/lib.a(fsck_minix.o)
 .ARM.attributes
                0x00000d47       0x2f util-linux/lib.a(lsusb.o)
 .ARM.attributes
                0x00000d76       0x2f util-linux/lib.a(mdev.o)
 .ARM.attributes
                0x00000da5       0x2f util-linux/lib.a(mkswap.o)
 .ARM.attributes
                0x00000dd4       0x2f util-linux/lib.a(more.o)
 .ARM.attributes
                0x00000e03       0x2f util-linux/lib.a(mount.o)
 .ARM.attributes
                0x00000e32       0x2f util-linux/lib.a(swaponoff.o)
 .ARM.attributes
                0x00000e61       0x2f util-linux/lib.a(umount.o)
 .ARM.attributes
                0x00000e90       0x2f util-linux/volume_id/lib.a(get_devname.o)
 .ARM.attributes
                0x00000ebf       0x2f util-linux/volume_id/lib.a(volume_id.o)
 .ARM.attributes
                0x00000eee       0x2f util-linux/volume_id/lib.a(ext.o)
 .ARM.attributes
                0x00000f1d       0x2f util-linux/volume_id/lib.a(fat.o)
 .ARM.attributes
                0x00000f4c       0x2f util-linux/volume_id/lib.a(hfs.o)
 .ARM.attributes
                0x00000f7b       0x2f util-linux/volume_id/lib.a(linux_swap.o)
 .ARM.attributes
                0x00000faa       0x2f util-linux/volume_id/lib.a(ntfs.o)
 .ARM.attributes
                0x00000fd9       0x2f util-linux/volume_id/lib.a(util.o)
 .ARM.attributes
                0x00001008       0x2f archival/lib.a(bbunzip.o)
 .ARM.attributes
                0x00001037       0x2f archival/lib.a(gzip.o)
 .ARM.attributes
                0x00001066       0x2f archival/lib.a(tar.o)
 .ARM.attributes
                0x00001095       0x2f archival/lib.a(unzip.o)
 .ARM.attributes
                0x000010c4       0x2f archival/libarchive/lib.a(data_extract_all.o)
 .ARM.attributes
                0x000010f3       0x2f archival/libarchive/lib.a(data_extract_to_stdout.o)
 .ARM.attributes
                0x00001122       0x2f archival/libarchive/lib.a(data_skip.o)
 .ARM.attributes
                0x00001151       0x2f archival/libarchive/lib.a(decompress_bunzip2.o)
 .ARM.attributes
                0x00001180       0x2f archival/libarchive/lib.a(decompress_gunzip.o)
 .ARM.attributes
                0x000011af       0x2f archival/libarchive/lib.a(filter_accept_reject_list.o)
 .ARM.attributes
                0x000011de       0x2f archival/libarchive/lib.a(find_list_entry.o)
 .ARM.attributes
                0x0000120d       0x2f archival/libarchive/lib.a(get_header_tar.o)
 .ARM.attributes
                0x0000123c       0x2f archival/libarchive/lib.a(header_list.o)
 .ARM.attributes
                0x0000126b       0x2f archival/libarchive/lib.a(header_verbose_list.o)
 .ARM.attributes
                0x0000129a       0x2f archival/libarchive/lib.a(init_handle.o)
 .ARM.attributes
                0x000012c9       0x2f archival/libarchive/lib.a(open_transformer.o)
 .ARM.attributes
                0x000012f8       0x2f archival/libarchive/lib.a(seek_by_jump.o)
 .ARM.attributes
                0x00001327       0x2f archival/libarchive/lib.a(seek_by_read.o)
 .ARM.attributes
                0x00001356       0x2f archival/libarchive/lib.a(unsafe_prefix.o)
 .ARM.attributes
                0x00001385       0x2f archival/libarchive/lib.a(data_align.o)
 .ARM.attributes
                0x000013b4       0x2f archival/libarchive/lib.a(filter_accept_all.o)
 .ARM.attributes
                0x000013e3       0x2f archival/libarchive/lib.a(header_skip.o)
 .ARM.attributes
                0x00001412       0x2f console-tools/lib.a(clear.o)
 .ARM.attributes
                0x00001441       0x2f console-tools/lib.a(setconsole.o)
 .ARM.attributes
                0x00001470       0x2f coreutils/lib.a(basename.o)
 .ARM.attributes
                0x0000149f       0x2f coreutils/lib.a(cat.o)
 .ARM.attributes
                0x000014ce       0x2f coreutils/lib.a(chmod.o)
 .ARM.attributes
                0x000014fd       0x2f coreutils/lib.a(chown.o)
 .ARM.attributes
                0x0000152c       0x2f coreutils/lib.a(cp.o)
 .ARM.attributes
                0x0000155b       0x2f coreutils/lib.a(cut.o)
 .ARM.attributes
                0x0000158a       0x2f coreutils/lib.a(date.o)
 .ARM.attributes
                0x000015b9       0x2f coreutils/lib.a(dd.o)
 .ARM.attributes
                0x000015e8       0x2f coreutils/lib.a(df.o)
 .ARM.attributes
                0x00001617       0x2f coreutils/lib.a(dirname.o)
 .ARM.attributes
                0x00001646       0x2f coreutils/lib.a(du.o)
 .ARM.attributes
                0x00001675       0x2f coreutils/lib.a(echo.o)
 .ARM.attributes
                0x000016a4       0x2f coreutils/lib.a(env.o)
 .ARM.attributes
                0x000016d3       0x2f coreutils/lib.a(expr.o)
 .ARM.attributes
                0x00001702       0x2f coreutils/lib.a(fsync.o)
 .ARM.attributes
                0x00001731       0x2f coreutils/lib.a(head.o)
 .ARM.attributes
                0x00001760       0x2f coreutils/lib.a(ln.o)
 .ARM.attributes
                0x0000178f       0x2f coreutils/lib.a(ls.o)
 .ARM.attributes
                0x000017be       0x2f coreutils/lib.a(md5_sha1_sum.o)
 .ARM.attributes
                0x000017ed       0x2f coreutils/lib.a(mkdir.o)
 .ARM.attributes
                0x0000181c       0x2f coreutils/lib.a(mknod.o)
 .ARM.attributes
                0x0000184b       0x2f coreutils/lib.a(mv.o)
 .ARM.attributes
                0x0000187a       0x2f coreutils/lib.a(nice.o)
 .ARM.attributes
                0x000018a9       0x2f coreutils/lib.a(nohup.o)
 .ARM.attributes
                0x000018d8       0x2f coreutils/lib.a(printf.o)
 .ARM.attributes
                0x00001907       0x2f coreutils/lib.a(pwd.o)
 .ARM.attributes
                0x00001936       0x2f coreutils/lib.a(readlink.o)
 .ARM.attributes
                0x00001965       0x2f coreutils/lib.a(rm.o)
 .ARM.attributes
                0x00001994       0x2f coreutils/lib.a(rmdir.o)
 .ARM.attributes
                0x000019c3       0x2f coreutils/lib.a(sleep.o)
 .ARM.attributes
                0x000019f2       0x2f coreutils/lib.a(sort.o)
 .ARM.attributes
                0x00001a21       0x2f coreutils/lib.a(sync.o)
 .ARM.attributes
                0x00001a50       0x2f coreutils/lib.a(tail.o)
 .ARM.attributes
                0x00001a7f       0x2f coreutils/lib.a(test.o)
 .ARM.attributes
                0x00001aae       0x2f coreutils/lib.a(test_ptr_hack.o)
 .ARM.attributes
                0x00001add       0x2f coreutils/lib.a(touch.o)
 .ARM.attributes
                0x00001b0c       0x2f coreutils/lib.a(tr.o)
 .ARM.attributes
                0x00001b3b       0x2f coreutils/lib.a(true.o)
 .ARM.attributes
                0x00001b6a       0x2f coreutils/lib.a(uname.o)
 .ARM.attributes
                0x00001b99       0x2f coreutils/lib.a(uniq.o)
 .ARM.attributes
                0x00001bc8       0x2f coreutils/lib.a(usleep.o)
 .ARM.attributes
                0x00001bf7       0x2f coreutils/lib.a(uudecode.o)
 .ARM.attributes
                0x00001c26       0x2f coreutils/lib.a(wc.o)
 .ARM.attributes
                0x00001c55       0x2f coreutils/libcoreutils/lib.a(cp_mv_stat.o)
 .ARM.attributes
                0x00001c84       0x2f coreutils/libcoreutils/lib.a(getopt_mk_fifo_nod.o)
 .ARM.attributes
                0x00001cb3       0x2f debianutils/lib.a(start_stop_daemon.o)
 .ARM.attributes
                0x00001ce2       0x2f debianutils/lib.a(which.o)
 .ARM.attributes
                0x00001d11       0x2f e2fsprogs/lib.a(fsck.o)
 .ARM.attributes
                0x00001d40       0x2f editors/lib.a(awk.o)
 .ARM.attributes
                0x00001d6f       0x2f editors/lib.a(cmp.o)
 .ARM.attributes
                0x00001d9e       0x2f editors/lib.a(sed.o)
 .ARM.attributes
                0x00001dcd       0x2f editors/lib.a(vi.o)
 .ARM.attributes
                0x00001dfc       0x2f findutils/lib.a(find.o)
 .ARM.attributes
                0x00001e2b       0x2f findutils/lib.a(grep.o)
 .ARM.attributes
                0x00001e5a       0x2f findutils/lib.a(xargs.o)
 .ARM.attributes
                0x00001e89       0x2f libbb/lib.a(ask_confirmation.o)
 .ARM.attributes
                0x00001eb8       0x2f libbb/lib.a(auto_string.o)
 .ARM.attributes
                0x00001ee7       0x2f libbb/lib.a(bb_do_delay.o)
 .ARM.attributes
                0x00001f16       0x2f libbb/lib.a(bb_pwd.o)
 .ARM.attributes
                0x00001f45       0x2f libbb/lib.a(change_identity.o)
 .ARM.attributes
                0x00001f74       0x2f libbb/lib.a(chomp.o)
 .ARM.attributes
                0x00001fa3       0x2f libbb/lib.a(common_bufsiz.o)
 .ARM.attributes
                0x00001fd2       0x2f libbb/lib.a(concat_path_file.o)
 .ARM.attributes
                0x00002001       0x2f libbb/lib.a(concat_subpath_file.o)
 .ARM.attributes
                0x00002030       0x2f libbb/lib.a(copy_file.o)
 .ARM.attributes
                0x0000205f       0x2f libbb/lib.a(correct_password.o)
 .ARM.attributes
                0x0000208e       0x2f libbb/lib.a(crc32.o)
 .ARM.attributes
                0x000020bd       0x2f libbb/lib.a(device_open.o)
 .ARM.attributes
                0x000020ec       0x2f libbb/lib.a(endofname.o)
 .ARM.attributes
                0x0000211b       0x2f libbb/lib.a(executable.o)
 .ARM.attributes
                0x0000214a       0x2f libbb/lib.a(fclose_nonstdin.o)
 .ARM.attributes
                0x00002179       0x2f libbb/lib.a(fflush_stdout_and_exit.o)
 .ARM.attributes
                0x000021a8       0x2f libbb/lib.a(fgets_str.o)
 .ARM.attributes
                0x000021d7       0x2f libbb/lib.a(find_mount_point.o)
 .ARM.attributes
                0x00002206       0x2f libbb/lib.a(find_pid_by_name.o)
 .ARM.attributes
                0x00002235       0x2f libbb/lib.a(get_line_from_file.o)
 .ARM.attributes
                0x00002264       0x2f libbb/lib.a(get_shell_name.o)
 .ARM.attributes
                0x00002293       0x2f libbb/lib.a(get_volsize.o)
 .ARM.attributes
                0x000022c2       0x2f libbb/lib.a(getopt32.o)
 .ARM.attributes
                0x000022f1       0x2f libbb/lib.a(getpty.o)
 .ARM.attributes
                0x00002320       0x2f libbb/lib.a(hash_md5_sha.o)
 .ARM.attributes
                0x0000234f       0x2f libbb/lib.a(herror_msg.o)
 .ARM.attributes
                0x0000237e       0x2f libbb/lib.a(human_readable.o)
 .ARM.attributes
                0x000023ad       0x2f libbb/lib.a(in_ether.o)
 .ARM.attributes
                0x000023dc       0x2f libbb/lib.a(inet_cksum.o)
 .ARM.attributes
                0x0000240b       0x2f libbb/lib.a(inet_common.o)
 .ARM.attributes
                0x0000243a       0x2f libbb/lib.a(inode_hash.o)
 .ARM.attributes
                0x00002469       0x2f libbb/lib.a(isdirectory.o)
 .ARM.attributes
                0x00002498       0x2f libbb/lib.a(lineedit.o)
 .ARM.attributes
                0x000024c7       0x2f libbb/lib.a(lineedit_ptr_hack.o)
 .ARM.attributes
                0x000024f6       0x2f libbb/lib.a(llist.o)
 .ARM.attributes
                0x00002525       0x2f libbb/lib.a(logenv.o)
 .ARM.attributes
                0x00002554       0x2f libbb/lib.a(login.o)
 .ARM.attributes
                0x00002583       0x2f libbb/lib.a(loop.o)
 .ARM.attributes
                0x000025b2       0x2f libbb/lib.a(make_directory.o)
 .ARM.attributes
                0x000025e1       0x2f libbb/lib.a(makedev.o)
 .ARM.attributes
                0x00002610       0x2f libbb/lib.a(match_fstype.o)
 .ARM.attributes
                0x0000263f       0x2f libbb/lib.a(mode_string.o)
 .ARM.attributes
                0x0000266e       0x2f libbb/lib.a(nuke_str.o)
 .ARM.attributes
                0x0000269d       0x2f libbb/lib.a(parse_config.o)
 .ARM.attributes
                0x000026cc       0x2f libbb/lib.a(parse_mode.o)
 .ARM.attributes
                0x000026fb       0x2f libbb/lib.a(perror_nomsg_and_die.o)
 .ARM.attributes
                0x0000272a       0x2f libbb/lib.a(pidfile.o)
 .ARM.attributes
                0x00002759       0x2f libbb/lib.a(print_flags.o)
 .ARM.attributes
                0x00002788       0x2f libbb/lib.a(printable.o)
 .ARM.attributes
                0x000027b7       0x2f libbb/lib.a(printable_string.o)
 .ARM.attributes
                0x000027e6       0x2f libbb/lib.a(process_escape_sequence.o)
 .ARM.attributes
                0x00002815       0x2f libbb/lib.a(procps.o)
 .ARM.attributes
                0x00002844       0x2f libbb/lib.a(pw_encrypt.o)
 .ARM.attributes
                0x00002873       0x2f libbb/lib.a(read_key.o)
 .ARM.attributes
                0x000028a2       0x2f libbb/lib.a(read_printf.o)
 .ARM.attributes
                0x000028d1       0x2f libbb/lib.a(recursive_action.o)
 .ARM.attributes
                0x00002900       0x2f libbb/lib.a(remove_file.o)
 .ARM.attributes
                0x0000292f       0x2f libbb/lib.a(replace.o)
 .ARM.attributes
                0x0000295e       0x2f libbb/lib.a(run_shell.o)
 .ARM.attributes
                0x0000298d       0x2f libbb/lib.a(safe_gethostname.o)
 .ARM.attributes
                0x000029bc       0x2f libbb/lib.a(safe_poll.o)
 .ARM.attributes
                0x000029eb       0x2f libbb/lib.a(safe_strncpy.o)
 .ARM.attributes
                0x00002a1a       0x2f libbb/lib.a(setup_environment.o)
 .ARM.attributes
                0x00002a49       0x2f libbb/lib.a(simplify_path.o)
 .ARM.attributes
                0x00002a78       0x2f libbb/lib.a(single_argv.o)
 .ARM.attributes
                0x00002aa7       0x2f libbb/lib.a(skip_whitespace.o)
 .ARM.attributes
                0x00002ad6       0x2f libbb/lib.a(sysconf.o)
 .ARM.attributes
                0x00002b05       0x2f libbb/lib.a(u_signal_names.o)
 .ARM.attributes
                0x00002b34       0x2f libbb/lib.a(udp_io.o)
 .ARM.attributes
                0x00002b63       0x2f libbb/lib.a(unicode.o)
 .ARM.attributes
                0x00002b92       0x2f libbb/lib.a(update_passwd.o)
 .ARM.attributes
                0x00002bc1       0x2f libbb/lib.a(uuencode.o)
 .ARM.attributes
                0x00002bf0       0x2f libbb/lib.a(vfork_daemon_rexec.o)
 .ARM.attributes
                0x00002c1f       0x2f libbb/lib.a(wfopen.o)
 .ARM.attributes
                0x00002c4e       0x2f libbb/lib.a(wfopen_input.o)
 .ARM.attributes
                0x00002c7d       0x2f libbb/lib.a(xatonum.o)
 .ARM.attributes
                0x00002cac       0x2f libbb/lib.a(xconnect.o)
 .ARM.attributes
                0x00002cdb       0x2f libbb/lib.a(xgetcwd.o)
 .ARM.attributes
                0x00002d0a       0x2f libbb/lib.a(xreadlink.o)
 .ARM.attributes
                0x00002d39       0x2f libbb/lib.a(xrealloc_vector.o)
 .ARM.attributes
                0x00002d68       0x2f libbb/lib.a(xregcomp.o)
 .ARM.attributes
                0x00002d97       0x2f libbb/lib.a(bb_askpass.o)
 .ARM.attributes
                0x00002dc6       0x2f libbb/lib.a(bb_bswap_64.o)
 .ARM.attributes
                0x00002df5       0x2f libbb/lib.a(bb_qsort.o)
 .ARM.attributes
                0x00002e24       0x2f libbb/lib.a(perror_nomsg.o)
 .ARM.attributes
                0x00002e53       0x2f libpwdgrp/lib.a(pwd_grp.o)
 .ARM.attributes
                0x00002e82       0x2f libpwdgrp/lib.a(uidgid_get.o)
 .ARM.attributes
                0x00002eb1       0x2f /home/paldier/k3_384/release/src-rt-6.x.4708/toolchains/hndtools-arm-linux-2.6.36-uclibc-4.5.3/bin/../arm-brcm-linux-uclibcgnueabi/sysroot/usr/lib/uclibc_nonshared.a(atexit.os)
 .ARM.attributes
                0x00002ee0       0x2f /home/paldier/k3_384/release/src-rt-6.x.4708/toolchains/hndtools-arm-linux-2.6.36-uclibc-4.5.3/bin/../lib/gcc/arm-brcm-linux-uclibcgnueabi/4.5.3/crtend.o
 .ARM.attributes
                0x00002f0f       0x1f /home/paldier/k3_384/release/src-rt-6.x.4708/toolchains/hndtools-arm-linux-2.6.36-uclibc-4.5.3/bin/../arm-brcm-linux-uclibcgnueabi/sysroot/usr/lib/crtn.o

.debug
 *(SORT(.debug))

.line
 *(SORT(.line))

.debug_srcinfo
 *(SORT(.debug_srcinfo))

.debug_sfnames
 *(SORT(.debug_sfnames))

.debug_aranges
 *(SORT(.debug_aranges))

.debug_pubnames
 *(SORT(.debug_pubnames))

.debug_info
 *(SORT(.debug_info) SORT(.gnu.linkonce.wi.*))

.debug_abbrev
 *(SORT(.debug_abbrev))

.debug_line
 *(SORT(.debug_line))

.debug_frame
 *(SORT(.debug_frame))

.debug_str
 *(SORT(.debug_str))

.debug_loc
 *(SORT(.debug_loc))

.debug_macinfo
 *(SORT(.debug_macinfo))

.debug_weaknames
 *(SORT(.debug_weaknames))

.debug_funcnames
 *(SORT(.debug_funcnames))

.debug_typenames
 *(SORT(.debug_typenames))

.debug_varnames
 *(SORT(.debug_varnames))

.debug_pubtypes
 *(SORT(.debug_pubtypes))

.debug_ranges
 *(SORT(.debug_ranges))

.gnu.attributes
 *(SORT(.gnu.attributes))

.note.gnu.arm.ident
 *(SORT(.note.gnu.arm.ident))

/DISCARD/
 *(SORT(.note.GNU-stack))
 *(SORT(.gnu_debuglink))
 *(SORT(.gnu.lto_*))
OUTPUT(busybox_unstripped elf32-littlearm)
